
ltag_ascetic.elf:     file format elf32-avr

Sections:
Idx Name          Size      VMA       LMA       File off  Algn
  0 .text         000035ba  00000000  00000000  00000094  2**1
                  CONTENTS, ALLOC, LOAD, READONLY, CODE
  1 .data         00000002  00800060  000035ba  0000364e  2**0
                  CONTENTS, ALLOC, LOAD, DATA
  2 .bss          00000045  00800062  00800062  00003650  2**0
                  ALLOC
  3 .debug_aranges 00000040  00000000  00000000  00003650  2**0
                  CONTENTS, READONLY, DEBUGGING
  4 .debug_pubnames 0000031d  00000000  00000000  00003690  2**0
                  CONTENTS, READONLY, DEBUGGING
  5 .debug_info   000013bc  00000000  00000000  000039ad  2**0
                  CONTENTS, READONLY, DEBUGGING
  6 .debug_abbrev 00000532  00000000  00000000  00004d69  2**0
                  CONTENTS, READONLY, DEBUGGING
  7 .debug_line   00000d8a  00000000  00000000  0000529b  2**0
                  CONTENTS, READONLY, DEBUGGING
  8 .debug_frame  00000170  00000000  00000000  00006028  2**2
                  CONTENTS, READONLY, DEBUGGING
  9 .debug_str    000005b8  00000000  00000000  00006198  2**0
                  CONTENTS, READONLY, DEBUGGING
 10 .debug_loc    000003e5  00000000  00000000  00006750  2**0
                  CONTENTS, READONLY, DEBUGGING
 11 .debug_ranges 00000018  00000000  00000000  00006b35  2**0
                  CONTENTS, READONLY, DEBUGGING

Disassembly of section .text:

00000000 <__vectors>:
       0:	0c 94 6b 14 	jmp	0x28d6	; 0x28d6 <__ctors_end>
       4:	0c 94 28 1a 	jmp	0x3450	; 0x3450 <__vector_1>
       8:	0c 94 88 14 	jmp	0x2910	; 0x2910 <__bad_interrupt>
       c:	0c 94 32 18 	jmp	0x3064	; 0x3064 <__vector_3>
      10:	0c 94 88 14 	jmp	0x2910	; 0x2910 <__bad_interrupt>
      14:	0c 94 88 14 	jmp	0x2910	; 0x2910 <__bad_interrupt>
      18:	0c 94 c9 18 	jmp	0x3192	; 0x3192 <__vector_6>
      1c:	0c 94 88 14 	jmp	0x2910	; 0x2910 <__bad_interrupt>
      20:	0c 94 88 14 	jmp	0x2910	; 0x2910 <__bad_interrupt>
      24:	0c 94 88 14 	jmp	0x2910	; 0x2910 <__bad_interrupt>
      28:	0c 94 88 14 	jmp	0x2910	; 0x2910 <__bad_interrupt>
      2c:	0c 94 88 14 	jmp	0x2910	; 0x2910 <__bad_interrupt>
      30:	0c 94 88 14 	jmp	0x2910	; 0x2910 <__bad_interrupt>
      34:	0c 94 88 14 	jmp	0x2910	; 0x2910 <__bad_interrupt>
      38:	0c 94 88 14 	jmp	0x2910	; 0x2910 <__bad_interrupt>
      3c:	0c 94 88 14 	jmp	0x2910	; 0x2910 <__bad_interrupt>
      40:	0c 94 88 14 	jmp	0x2910	; 0x2910 <__bad_interrupt>
      44:	0c 94 88 14 	jmp	0x2910	; 0x2910 <__bad_interrupt>
      48:	0c 94 88 14 	jmp	0x2910	; 0x2910 <__bad_interrupt>
      4c:	0c 94 88 14 	jmp	0x2910	; 0x2910 <__bad_interrupt>
      50:	0c 94 88 14 	jmp	0x2910	; 0x2910 <__bad_interrupt>

00000054 <pSnd>:
      54:	81 6a 87 96 8b 97 78 7a 8f 9a 9a 67 51 7c 9e 2f     .j....xz...gQ|./
      64:	6d 5b e8 64 04 5c 00 86 f3 fd db 76 3b d6 b4 64     m[.d.\.....v;..d
      74:	99 74 ee a3 9a ff a6 69 4c bb ff ea ff a9 1b 6a     .t.....iL......j
      84:	99 d7 b1 76 b3 ab ff d6 47 68 25 4b 80 84 6b 8c     ...v....Gh%K..k.
      94:	49 47 68 3d 46 77 5c 00 0c 00 2d e4 d5 66 95 f3     IGh=Fw\...-..f..
      a4:	67 28 c6 fc 6b 47 ac 65 78 78 72 9b ff f3 ff c0     g(..kG.exxr.....
      b4:	d3 eb dd a9 75 6a 07 72 9c 31 03 03 15 28 3c b1     ....uj.r.1...(<.
      c4:	5e 7c 38 00 04 19 54 92 f2 39 00 c3 d3 45 23 00     ^|8...T..9...E#.
      d4:	1f 21 00 06 19 02 00 00 13 68 20 46 0e 00 71 00     .!.......h F..q.
      e4:	04 00 08 00 25 4f 48 d6 ac a1 bd 17 00 14 19 4f     ....%OH........O
      f4:	4a c2 ff d0 d7 a2 ad cb 1c 4c 3a 26 3c 16 26 00     J........L:&<.&.
     104:	52 3b 00 0c 4d 51 00 64 c6 2c 00 e0 97 00 03 c8     R;..MQ.d.,......
     114:	ea dc ff ec fc ff 6f 34 ac ee cb 04 35 05 2b 00     ......o4....5.+.
     124:	9c d5 a8 3c 4e 00 92 e6 b9 8d 30 ab 77 a1 ad 8c     ...<N.....0.w...
     134:	1f 00 a8 a3 1e ff cf c8 d1 ff c6 b5 a0 fa 6b 96     ..............k.
     144:	cc de d4 c1 ff 83 d3 ec c4 95 d5 d7 ff b3 fe ff     ................
     154:	fc ff fc f4 67 39 6f 40 11 36 a4 6e 6a ce fe ff     ....g9o@.6.nj...
     164:	f9 ff f8 ff f8 ff f8 ff dc 67 e4 fb ef ff f6 de     .........g......
     174:	ec dd dc ff f2 ad 3e 73 67 5c 35 76 c9 83 df ff     ......>sg\5v....
     184:	c4 aa 8d ed ff f8 ff df bf ff b1 00 00 0c 13 0c     ................
     194:	00 3e 3a 1d 00 29 b7 7c 57 31 9c 43 a7 e1 c3 ae     .>:..).|W1.C....
     1a4:	28 99 1b 00 19 3d 4b 00 17 5f 97 61 7c 5b d5 77     (....=K.._.a|[.w
     1b4:	00 07 00 04 00 02 00 00 03 00 18 19 00 04 00 10     ................
     1c4:	02 10 2a 6a 69 5d 40 9c 7f 10 00 01 00 00 02 00     ..*ji]@.........
     1d4:	44 4b 05 04 28 73 97 2c 00 00 14 47 1e 06 00 09     DK..(s.,...G....
     1e4:	00 21 17 06 1f 01 02 00 02 00 0c 00 13 00 92 91     .!..............
     1f4:	ae 9d 98 b9 8b f0 6e 00 05 00 02 00 05 28 00 02     ......n......(..
     204:	2a 7c 7f 8d 7f 81 6c 42 11 00 03 00 02 00 02 00     *|....lB........
     214:	26 a3 ed 65 ad 81 1e 09 00 05 00 06 00 43 30 00     &..e.........C0.
     224:	5e e5 d6 9f 6d e0 bb 30 2e 96 f8 70 6a 7f bc bf     ^...m..0...pj...
     234:	ef bb 09 af ef 40 00 23 15 04 00 b0 f8 59 0d 64     .....@.#.....Y.d
     244:	ff fd ff e7 ff cb 9a d3 8c 7a bb 34 43 1f 00 46     .........z.4C..F
     254:	08 01 0a 4b 33 b8 bd d1 e7 90 7c 7f 87 29 c2 71     ...K3.....|..).q
     264:	55 af 48 32 38 50 6e 48 56 83 aa 6d 0a 1e 66 19     U.H28PnHV..m..f.
     274:	00 02 00 02 00 04 0d 21 4e 4b 40 56 43 81 b4 ad     .......!NK@VC...
     284:	02 95 b7 97 7c cb d5 95 93 d9 aa 29 6c 4b 2e 00     ....|......)lK..
     294:	09 00 00 0e 1c 00 08 67 f0 a2 b2 de 7f 72 59 23     .......g.....rY#
     2a4:	00 03 03 3f 45 29 6e 8c 51 56 67 36 55 5b 45 28     ...?E)n.QVg6U[E(
     2b4:	23 20 5b 79 7f a3 2e 16 00 28 38 0d 40 4f 75 4b     # [y.....(8.@OuK
     2c4:	34 9d 6f 2d 5e 96 32 4f b0 cf b2 6f a5 50 04 06     4.o-^.2O...o.P..
     2d4:	71 93 63 b7 ff ff fe ff fc ff f6 e8 c8 8a 74 60     q.c...........t`
     2e4:	13 01 00 14 02 1e 43 00 05 0a 00 08 00 0a 2d 63     ......C.......-c
     2f4:	78 7d ff de e1 fb 56 d1 7f 17 59 84 db 5c 9c cb     x}....V...Y..\..
     304:	78 c1 96 aa 9d 5d fd cf a3 c7 12 32 54 35 79 6b     x....].....2T5yk
     314:	5e 1b 43 9d 75 64 3a 00 70 1d 77 da 20 63 31 4c     ^.C.ud:.p.w. c1L
     324:	ec 9b 3f 12 00 7b 41 64 84 05 01 04 73 38 0d 41     ..?..{Ad....s8.A
     334:	45 39 99 9e d0 ff ff ee d0 da 82 8f b4 a6 a8 b3     E9..............
     344:	9f fe fb fe e8 f3 d7 ca ba 78 7e 98 64 64 9b 97     .........x~.dd..
     354:	60 5b 7d 89 59 00 3d 6c 62 25 34 13 00 19 17 02     `[}.Y.=lb%4.....
     364:	00 06 3a 51 50 56 31 52 54 66 9c 5f 3e 5f 6c 74     ..:QPV1RTf._>_lt
     374:	4e 9d 92 46 1e 54 4f 00 0a 00 20 35 4a 36 2f 2f     N..F.TO... 5J6//
     384:	6f 95 4b 3f 51 41 60 82 3e 34 15 07 0b 00 07 08     o.K?QA`.>4......
     394:	15 39 00 2c 2a 00 7a 97 db b9 84 1d 00 6b b1 56     .9.,*.z......k.V
     3a4:	95 99 49 35 18 61 1d 0d 29 1f 00 20 46 7c 1f 3d     ..I5.a..).. F|.=
     3b4:	20 14 0c 00 04 00 02 00 00 2a 75 6f da fb b8 89      ........*uo....
     3c4:	78 b1 c0 7c 5c 61 ad 84 4e 0a 00 37 3b 00 09 00     x..|\a..N..7;...
     3d4:	4f 9f 95 70 91 d2 d7 f2 9a 92 40 7d c1 2b 00 05     O..p......@}.+..
     3e4:	00 01 00 00 53 88 2d 74 68 16 00 31 bd ff c1 d3     ....S.-th..1....
     3f4:	7d 02 0c 00 60 00 7b 81 75 b6 ae d0 9c 51 22 3f     }...`.{.u....Q"?
     404:	7b ac 76 7e a4 8c 59 83 7f aa 93 7b 75 44 2f 5a     {.v~..Y....{uD/Z
     414:	5f 13 0a 1e 05 00 0b 00 04 00 00 0c 00 1f 63 08     _.............c.
     424:	0d 44 5f 7b 79 6e 63 3a 34 31 1f 50 53 41 1c 27     .D_{ync:41.PSA.'
     434:	3e 3a 50 71 60 45 81 87 74 42 59 43 31 52 80 8a     >:Pq`E..tBYC1R..
     444:	8e 50 0c 63 4a 5e 39 1c 1e 5d 5d 23 17 2e 2e 24     .P.cJ^9..]]#...$
     454:	2d 0e 03 02 42 3e 88 88 69 8d 70 68 5c 5b 71 b1     -...B>..i.ph\[q.
     464:	a7 b2 be 93 9f a0 a1 85 a2 9a 73 6c 86 99 63 49     ..........sl..cI
     474:	58 68 3a 4a 59 69 6e 6a 76 6e 68 52 5f 5d 58 5f     Xh:JYinjvnhR_]X_
     484:	75 70 5d 73 99 87 84 77 47 47 42 64 7a 48 4a 7b     up]s...wGGBdzHJ{
     494:	7a 6e 65 6a 76 8d a6 8a 8c 8a 95 7e 75 64 4a cc     znejv......~udJ.
     4a4:	ff fe b8 9e 67 66 bf 7d 71 45 1b 20 44 4a 90 9f     ....gf.}qE. DJ..
     4b4:	5b 45 36 4d 32 28 24 2d 30 24 42 2e 31 7c 71 86     [E6M2($-0$B.1|q.
     4c4:	8a 6a 68 71 80 81 67 69 8f 87 54 3a 4e 45 45 5b     .jhq..gi..T:NEE[
     4d4:	69 55 90 82 42 23 46 59 49 3e 0b 66 96 80 56 39     iU..B#FYI>.f..V9
     4e4:	5a 36 6b 6e 28 5e 9b a2 84 8b 84 99 94 95 a4 75     Z6kn(^.........u
     4f4:	60 6a 53 2b 11 26 38 1b 28 5a 90 82 77 69 6c 9c     `jS+.&8.(Z..wil.
     504:	85 83 51 2b 4b 6d 79 8a 56 49 70 37 41 72 81 67     ..Q+Kmy.VIp7Ar.g
     514:	8b 9c ad cb dc ff e3 9e e3 d2 a6 ca 93 7f 75 a1     ..............u.
     524:	b8 90 78 77 84 80 6e 83 82 97 ab 8a 8f b5 d1 e6     ..xw..n.........
     534:	dd d4 c3 ae 9f 83 5c 6d 6e 57 56 4e 78 7b 81 70     ......\mnWVNx{.p
     544:	7e 8a 75 52 62 57 30 31 3e 4f 37 59 50 39 1b 29     ~.uRbW01>O7YP9.)
     554:	2a 64 74 6f 59 74 ce bd a6 7b 75 7a 87 97 b3 a5     *dtoYt...{uz....
     564:	99 c2 e1 a7 a6 be 9d 7c 9a 8a 74 91 9b 90 97 bb     .......|..t.....
     574:	ac 9b 9e b8 8b 76 6a 74 7f 6c 83 90 97 84 84 b5     .....vjt.l......
     584:	af ac a9 81 6c 74 83 5d 3f 39 2e 24 37 4e 5b 82     ....lt.]?9.$7N[.
     594:	92 9e b8 93 c1 cc b3 a9 a8 d5 bf cf b4 80 78 74     ..............xt
     5a4:	7a 6c 56 4a 60 5d 4d 80 6b 59 5a 67 82 5c 62 75     zlVJ`]M.kYZg.\bu
     5b4:	5c 78 7f 83 72 8b 9f 83 a9 d6 fc bc 9a a0 b6 78     \x..r..........x
     5c4:	65 6f 80 7b 58 75 8e ab cd e4 bd be df e1 9a 8b     eo.{Xu..........
     5d4:	a5 84 83 c2 b7 aa a0 9e 99 8b 7a 7e 99 97 a6 71     ..........z~...q
     5e4:	56 7e 95 86 6f 72 7b 6f 69 4e 4a 7c 99 8d 60 5d     V~..or{oiNJ|..`]
     5f4:	6e 61 52 45 67 6d 2f 5a 87 7d 8a 8d 78 78 7d 6c     naREgm/Z.}..xx}l
     604:	71 6c 6f 66 6a 8c 9e 75 7a 8a 9f 97 8a 8a 79 93     qlofj..uz.....y.
     614:	9d 9f 6a 80 aa a7 b2 8f 8a 87 7c 8c 98 6e 6a 89     ..j.......|..nj.
     624:	7a 88 54 55 84 91 87 84 8e 85 97 91 7b 91 7a 65     z.TU........{.ze
     634:	7d 76 76 6c 8a 8d 87 58 67 a8 97 9b 8c 79 87 8f     }vvl...Xg....y..
     644:	89 84 6b 5f 92 a9 82 62 68 60 51 7b 7a 5a 53 6f     ..k_...bh`Q{zZSo
     654:	7c 69 59 59 66 70 73 7a 68 62 74 7e 9c 7c 64 84     |iYYfpszhbt~.|d.
     664:	88 81 8e 97 8c 98 95 8a 94 ad a9 9f 8e 7c 7a 64     .............|zd
     674:	67 6e 5f 5a 66 4f 74 67 63 7a 9c ba a5 a6 9b 92     gn_ZfOtgcz......
     684:	a1 cf d0 bd 8b 86 bc a0 8f 98 70 71 56 2d 66 70     ..........pqV-fp
     694:	4f 59 7b 6c 5d 74 52 5c 77 7a 6d 73 ab b8 8c 9c     OY{l]tR\wzms....
     6a4:	a3 91 97 af a5 94 9b b2 a3 a3 a3 90 7f 53 6a 84     .............Sj.
     6b4:	8f 6a 6a 70 63 68 7e 72 52 4b 65 78 74 72 81 67     .jjpch~rRKextr.g
     6c4:	62 86 90 81 83 94 98 95 97 a2 93 a4 9a a0 94 98     b...............
     6d4:	87 8a 7f 85 8f 80 77 51 74 8b 6b 64 6f 5d 6d 83     ......wQt.kdo]m.
     6e4:	7e 70 93 9d 90 9a 8b 93 af a8 88 66 77 8e 8e 7a     ~p.........fw..z
     6f4:	67 7c 8c 77 8a 95 75 85 96 82 6d 84 92 90 88 88     g|.w..u...m.....
     704:	87 91 a4 a9 a5 a1 a3 a6 9d 9b 98 7f 94 95 8c 87     ................
     714:	88 9f 7e 66 71 60 80 7b 5e 67 43 43 43 48 66 65     ..~fq`.{^gCCCHfe
     724:	5e 62 65 47 5f 97 79 96 9f 92 9c 94 a7 a9 8e 89     ^beG_.y.........
     734:	80 89 a1 93 9e 99 9b ad b4 93 7e 8c 97 94 90 85     ..........~.....
     744:	96 a2 9b 8f 90 7f 65 4a 5b 91 86 6a 54 61 65 6c     ......eJ[..jTael
     754:	6b 4d 52 74 92 6c 5e 93 8c 78 88 a4 a3 92 8b 81     kMRt.l^..x......
     764:	83 93 8d 98 7c 66 5e 66 86 71 73 73 7b 85 7f 78     ....|f^f.qss{..x
     774:	7a 93 91 81 79 76 7e 70 8c 98 92 ab a7 90 8f 9d     z...yv~p........
     784:	9e 95 71 6a 80 7a 73 6b 74 87 7a 5f 7a 7e 6a 68     ..qj.zskt.z_z~jh
     794:	82 8c 7e 7d 77 86 82 84 79 89 8a 8d 7c 7f 86 9a     ..~}w...y...|...
     7a4:	98 7c 89 7e 75 71 82 78 6e 5e 5c 5f 63 88 8e 6d     .|.~uq.xn^\_c..m
     7b4:	64 79 85 77 94 8a 7d 90 a2 9a a5 a0 8b 8f a0 99     dy.w..}.........
     7c4:	8e 9e a7 b6 a5 a5 98 9f 99 92 7b 87 91 71 72 7a     ..........{..qrz
     7d4:	74 66 5c 61 5a 4a 49 4f 54 59 6a 7e 7b 61 49 54     tf\aZJIOTYj~{aIT
     7e4:	60 59 95 94 6d 81 73 6c 7d 65 94 7e 56 78 60 88     `Y..m.sl}e.~Vx`.
     7f4:	ba a1 97 84 99 b3 7d 86 75 82 b9 a6 9a 82 89 91     ......}.u.......
     804:	95 7f 78 97 8c 79 76 7e 91 95 8c 87 71 96 81 4c     ..x..yv~....q..L
     814:	58 85 8c 8f 7e 54 56 6d 75 69 82 89 86 8b 99 ad     X...~TVmui......
     824:	92 7b 83 6f 73 93 7b 63 7d 80 68 65 7c 6f 74 77     .{.os.{c}.he|otw
     834:	70 73 6e 74 6b 74 85 84 86 89 99 8f 88 96 83 82     psntkt..........
     844:	a3 94 7f a3 af ae 8c 78 83 90 96 97 9e aa 8b 85     .......x........
     854:	a2 a7 99 89 8a 80 8f 8c 85 83 96 98 9e a0 8c 91     ................
     864:	88 7f 74 89 82 86 65 49 73 78 6f 6d 77 6f 7a 7b     ..t...eIsxomwoz{
     874:	78 69 7c 79 82 7b 73 8c 89 80 67 85 8f 8b 70 6e     xi|y.{s...g...pn
     884:	7f 8b 90 83 88 97 92 a0 ab 9a 92 7e 85 8a 7c 8a     ...........~..|.
     894:	94 91 88 84 7c 74 98 83 70 6f 70 69 62 84 85 87     ....|t..popib...
     8a4:	93 89 83 7c 83 90 89 84 71 7b 72 70 6f 63 56 53     ...|....q{rpocVS
     8b4:	68 6f 6b 55 66 85 90 84 7c 72 87 93 8c 8f 7d 78     hokUf...|r....}x
     8c4:	88 95 87 85 90 79 82 9b 90 78 76 80 71 67 72 7e     .....y...xv.qgr~
     8d4:	7a 70 76 7b 7a 85 79 7b 71 77 8e 74 71 85 95 8b     zpv{z.y{qw.tq...
     8e4:	72 7b 8b 8e 83 61 7c ab 9b 87 8c 8f 80 83 8b 77     r{...a|........w
     8f4:	86 7d 84 88 86 92 88 79 67 75 84 9b 8e 9d 96 6f     .}.....ygu.....o
     904:	81 85 8f 92 73 75 7d 6c 6e 72 73 74 66 62 67 63     ....su}lnrstfbgc
     914:	66 70 6b 69 67 6c 81 89 88 79 82 94 af aa 9a 84     fpkigl...y......
     924:	77 87 7f 6f 80 87 73 78 79 9a 8b 62 74 87 7b 81     w..o..sxy..bt.{.
     934:	78 6b 80 8c 81 73 7d 81 78 7d 7d 70 68 77 83 72     xk...s}.x}}phw.r
     944:	66 61 7a 6b 68 81 89 7e 6b 6c 69 72 81 88 89 8f     fazkh..~klir....
     954:	8b 7a 85 89 84 89 75 7b 91 91 8a 75 77 86 81 7a     .z....u{...uw..z
     964:	78 8f 90 80 6f 77 84 81 84 76 71 6d 75 88 89 8a     x...ow...vqmu...
     974:	79 73 85 80 8d 90 71 5c 71 90 9c 78 68 77 87 93     ys....q\q..xhw..
     984:	89 71 84 af 98 8d 86 77 62 7a 82 82 85 73 53 51     .q.....wbz...sSQ
     994:	75 75 77 73 75 83 8f 75 5a 73 95 96 89 8a 97 86     uuwsu..uZs......
     9a4:	70 56 6d 90 a1 aa 98 9f a1 8d 72 80 6e 60 81 a9     pVm.......r.n`..
     9b4:	b7 88 55 57 85 9d 98 88 8b ab aa 7c 67 7f 95 8c     ..UW.......|g...
     9c4:	8c 85 88 88 75 82 9f 8c 76 7c 5f 60 86 84 82 7e     ....u...v|_`...~
     9d4:	70 9e 92 63 7b 98 a7 94 68 68 80 85 73 61 5c 5d     p..c{...hh..sa\]
     9e4:	6b 6f 88 80 5e 5e 83 7b 66 69 68 68 67 84 8a 7d     ko..^^.{fihhg..}
     9f4:	73 74 89 8d 82 91 8e 83 8b 98 91 85 7b 85 8b 8d     st..........{...
     a04:	84 72 7f 8c a2 a5 99 84 81 8d 8e 7c 7b 7b 7b 84     .r.........|{{{.
     a14:	92 80 75 88 66 7c 95 73 86 96 78 74 6c 7f 88 7c     ..u.f|.s..xtl..|
     a24:	83 77 7a 71 77 8a 69 62 70 77 6e 86 90 6e 75 90     .wzqw.ibpwn..nu.
     a34:	9d a1 73 75 a8 81 65 61 7c 81 7e 90 93 81 64 69     ..su..ea|.~...di
     a44:	90 a6 8c 77 7a 73 72 77 88 83 62 72 86 7f 7c 72     ...wzsrw..br..|r
     a54:	69 79 75 71 7b 84 83 8a 8a a4 9e 73 71 8d 9c 8d     iyuq{......sq...
     a64:	8a 8d 9f a7 94 93 95 8c 8b 9a 98 91 87 78 82 8b     .............x..
     a74:	80 8c 8f 69 57 6a 8d 8f 8a 7c 82 80 83 98 8e 6e     ...iWj...|.....n
     a84:	81 8a 86 84 78 75 7e 7c 7e 7f 7e 8d 7d 70 79 86     ....xu~|~.~.}py.
     a94:	8b 73 66 77 76 6e 69 75 6c 67 57 7b 8f 79 69 7e     .sfwvniulgW{.yi~
     aa4:	88 82 89 8c 86 71 80 8c 94 82 85 89 84 80 81 85     .....q..........
     ab4:	8c 8a 94 9a 8a 83 84 8d 8d 7f 80 88 8d 9c 90 84     ................
     ac4:	83 92 90 8a 85 77 84 97 95 82 7b 7d 8b 7e 70 80     .....w....{}.~p.
     ad4:	80 76 8c 85 71 83 8b 8d 73 76 7c 73 71 74 6e 5e     .v..q...sv|sqtn^
     ae4:	70 80 77 6a 76 83 79 78 7d 68 5f 6b 73 68 61 71     p.wjv.yx}h_kshaq
     af4:	70 6f 77 7e 8a 83 78 7d 84 87 8a 93 89 87 86 8d     pow~..x}........
     b04:	99 9f 96 82 92 8f 90 91 8e 95 8f 95 94 8a 8c 94     ................
     b14:	90 8b 88 8c 8a 80 84 7f 7d 88 88 88 91 8b 87 84     ........}.......
     b24:	7e 79 7c 7f 84 87 79 7c 7f 89 8e 7c 76 79 83 8b     ~y|...y|...|vy..
     b34:	80 76 6d 61 76 8b 84 76 6c 75 83 82 7c 79 77 75     .vmav..vlu..|ywu
     b44:	7b 7f 80 79 71 7e 82 79 8b 81 70 75 74 82 7e 68     {..yq~.y..put.~h
     b54:	78 71 74 95 82 85 8a 77 7c 87 83 85 80 79 75 78     xqt....w|....yux
     b64:	7c 7f 70 73 7d 82 8c 85 7c 73 77 71 75 7a 70 79     |.ps}...|swquzpy
     b74:	81 79 83 86 8b 82 85 7f 80 7e 73 7f 86 8f 83 7a     .y.......~s....z
     b84:	7a 8e 90 8d 90 88 8e 84 86 92 94 87 6e 7b 7f 7f     z...........n{..
     b94:	83 7d 81 8b 7b 87 8f 82 84 76 80 83 7f 7a 77 7c     .}..{....v...zw|
     ba4:	8a 8b 7e 80 84 85 7e 75 79 88 8b 81 6f 75 82 7e     ..~...~uy...ou.~
     bb4:	80 8c 7f 76 84 89 83 76 65 70 80 73 70 7b 70 75     ...v...vep.sp{pu
     bc4:	83 84 7b 77 86 87 86 80 81 84 80 81 8a 91 95 8b     ..{w............
     bd4:	87 88 7f 78 81 8e 93 95 91 84 7b 85 86 87 7e 87     ...x......{...~.
     be4:	8c 7d 7f 8b 8e 82 7a 6f 74 76 7f 98 8c 7c 78 81     .}....zotv...|x.
     bf4:	81 75 81 85 76 78 86 81 8a 87 7e 7a 82 92 91 89     .u..vx....~z....
     c04:	8a 91 84 76 6d 6b 71 83 80 72 75 8a 8d 78 68 75     ...vmkq..ru..xhu
     c14:	82 7f 79 72 7b 8d 93 7c 67 69 88 a4 9a 82 88 9a     ..yr{..|gi......
     c24:	9f 7f 65 5d 76 98 9c 8f 7d 7e 80 82 83 80 80 85     ..e]v...}~......
     c34:	87 83 6d 72 88 89 8f 8b 80 82 8a 80 86 81 74 82     ..mr..........t.
     c44:	77 77 8b 86 80 84 82 7c 71 82 83 7c 79 83 80 6b     ww.....|q..|y..k
     c54:	77 84 8b 83 82 73 7e 80 75 79 84 79 6c 70 7d 89     w....s~.uy.ylp}.
     c64:	80 86 79 74 71 6c 71 84 83 73 7a 83 7c 80 8c 85     ..ytqlq..sz.|...
     c74:	87 86 73 7b 81 86 8c 75 77 7d 80 86 93 88 79 7a     ..s{...uw}....yz
     c84:	7c 79 76 7e 76 83 90 7f 7a 7e 8f 87 77 76 7d 8e     |yv~v...z~..wv}.
     c94:	8c 80 83 99 8e 84 77 77 8c 88 7d 7f 88 89 7f 6a     ......ww..}....j
     ca4:	71 90 8d 72 78 8b 87 88 80 71 83 90 80 78 87 89     q..rx....q...x..
     cb4:	76 75 73 7a 84 7f 88 81 7a 79 76 75 78 72 70 81     vusz....zyvuxrp.
     cc4:	7a 6c 65 72 80 73 7a 84 7a 7e 86 76 6b 6a 75 85     zler.sz.z~.vkju.
     cd4:	88 82 77 7a 71 75 7d 76 78 6d 79 83 84 79 70 83     ..wzqu}vxmy..yp.
     ce4:	81 79 78 79 7e 7b 77 85 8b 92 8b 78 76 7e 7c 6d     .yxy~{w....xv~|m
     cf4:	81 80 7a 7e 87 91 83 81 82 79 6f 82 7c 6e 81 82     ..z~.....yo.|n..
     d04:	7d 8d 8b 7e 72 6d 7a 85 8b 80 87 8e 76 72 70 6c     }..~rmz.....vrpl
     d14:	73 7f 83 7f 81 81 79 72 72 74 8a 7e 6e 87 8a 81     s.....yrrt.~n...
     d24:	78 7e 8b 83 74 7d 84 6f 70 88 83 7a 82 83 86 7a     x~..t}.op..z...z
     d34:	7b 94 90 72 75 87 82 75 79 8d 92 83 89 89 73 7f     {..ru..uy.....s.
     d44:	7c 6f 7e 87 84 7f 7e 7b 79 7e 7f 86 81 77 7d 7a     |o~...~{y~...w}z
     d54:	7f 8b 81 74 7c 7e 70 6f 7a 7a 7d 80 82 79 7b 84     ...t|~pozz}..y{.
     d64:	78 78 69 77 8f 8a 82 6f 6f 7f 80 7b 76 7f 83 81     xxiw...oo..{v...
     d74:	80 7d 7e 80 7c 76 70 72 7f 86 77 6e 77 7e 78 71     .}~.|vpr..wnw~xq
     d84:	7b 7d 86 7b 76 78 70 71 76 7e 8c 8b 8c 8a 7a 78     {}.{vxpqv~....zx
     d94:	77 75 74 7f 8c 80 7f 88 8b 92 8c 81 78 75 70 73     wut.........xups
     da4:	69 6f 7b 73 7f 8b 85 81 7c 6d 6d 7d 82 7c 76 7a     io{s....|mm}.|vz
     db4:	89 82 79 78 80 88 81 76 7a 85 87 8c 87 84 81 89     ..yx...vz.......
     dc4:	87 85 80 6f 7a 8f 92 80 84 81 85 82 8b 8b 7a 7b     ...oz.........z{
     dd4:	87 90 82 82 71 72 85 86 7e 83 88 88 83 83 7e 76     ....qr..~.....~v
     de4:	74 7b 85 82 86 7a 70 77 7d 7f 77 6a 75 89 8c 76     t{...zpw}.wju..v
     df4:	80 88 72 87 9a 83 75 6d 6c 75 72 75 85 85 7f 81     ..r...umluru....
     e04:	7a 7f 7b 80 86 7e 8d 87 7b 83 7b 71 77 70 6d 7b     z.{..~..{.{qwpm{
     e14:	80 7b 8b 93 7e 85 81 79 7c 87 84 6d 78 75 75 75     .{..~..y|..mxuuu
     e24:	74 7e 80 7e 7e 86 7e 80 78 6f 78 7e 7a 75 80 82     t~.~~.~.xox~zu..
     e34:	7e 78 76 76 77 79 79 7d 81 82 81 85 80 7d 7b 73     ~xvvwyy}.....}{s
     e44:	7c 74 7c 7e 7e 84 7d 7f 83 8b 83 78 7d 81 7c 82     |t|~~.}....x}.|.
     e54:	7c 76 80 7f 86 95 8c 83 7c 7d 86 85 8c 8d 80 79     |v......|}.....y
     e64:	7a 78 80 84 7a 7c 87 80 79 85 83 86 84 68 5b 76     zx..z|..y....h[v
     e74:	92 8a 7d 77 85 87 7d 77 77 89 92 86 7e 77 6c 70     ..}w..}ww...~wlp
     e84:	77 73 84 91 8f 9b 92 86 77 74 7c 7f 82 88 88 7f     ws......wt|.....
     e94:	75 73 7e 7f 81 84 7f 77 76 7c 82 81 81 74 70 71     us~....wv|...tpq
     ea4:	7c 82 79 76 7f 7e 72 71 82 88 81 80 80 91 83 72     |.yv.~rq.......r
     eb4:	75 7f 8f 8f 88 79 7b 88 84 73 6c 72 81 97 8a 8a     u....y{..slr....
     ec4:	91 85 71 6c 69 66 80 7e 81 84 82 87 84 7e 79 76     ..qlif.~.....~yv
     ed4:	78 76 7b 84 85 86 7f 83 81 83 85 7b 78 7c 81 82     xv{........{x|..
     ee4:	80 82 84 85 80 7e 7b 7e 89 7e 76 83 88 7e 84 8c     .....~{~.~v..~..
     ef4:	83 7b 7c 7a 72 70 7c 7d 83 8a 7f 7e 81 7f 85 80     .{|zrp|}...~....
     f04:	78 79 7c 7d 82 7e 7a 7c 7a 76 75 81 89 8d 80 7d     xy|}.~z|zvu....}
     f14:	84 88 80 78 74 70 73 7b 88 7f 7d 7d 7c 89 85 76     ...xtps{..}}|..v
     f24:	74 7a 7d 75 7e 82 73 6a 77 87 80 7a 80 82 74 6f     tz}u~.sjw..z..to
     f34:	75 7d 81 7a 7e 80 7e 7d 7b 80 81 82 85 85 80 88     u}.z~.~}{.......
     f44:	87 74 77 7c 75 7b 85 89 8c 86 8c 8b 85 82 7d 80     .tw|u{........}.
     f54:	7e 7c 82 87 89 86 82 81 7d 81 87 89 83 82 88 85     ~|......}.......
     f64:	7e 7f 7d 7a 7f 79 79 89 95 8b 80 81 82 7f 79 75     ~.}z.yy.......yu
     f74:	7d 87 7d 78 7d 85 88 79 79 7d 7d 79 7a 7d 77 79     }.}x}..yy}}yz}wy
     f84:	82 7c 7b 82 79 77 76 75 7c 83 84 8f 8c 7a 76 76     .|{.ywvu|....zvv
     f94:	70 74 87 89 80 7e 76 79 83 83 7c 74 7c 79 77 7b     pt...~vy..|t|yw{
     fa4:	76 78 79 70 75 87 86 85 82 81 7b 76 79 7d 86 82     vxypu.....{vy}..
     fb4:	7e 7d 7a 80 7f 7e 80 7f 84 84 83 7f 7b 74 70 78     ~}z..~......{tpx
     fc4:	7e 7a 7a 80 86 8b 89 86 84 7f 7c 76 77 7f 87 90     ~zz.......|vw...
     fd4:	92 95 8c 7d 7e 7d 7e 81 84 8e 94 8b 7d 7b 79 70     ...}~}~.....}{yp
     fe4:	82 95 8f 8a 84 85 85 7a 77 78 7c 83 84 83 83 7f     .......zwx|.....
     ff4:	79 7b 83 86 81 7f 7c 81 85 7e 7e 85 85 7c 77 79     y{....|..~~..|wy
    1004:	7b 7a 7b 77 76 77 80 87 84 83 80 76 73 77 82 83     {z{wvw.....vsw..
    1014:	77 76 82 81 80 7c 7b 89 85 7f 78 7f 7d 78 79 7e     wv...|{...x.}xy~
    1024:	7e 7e 7e 79 7d 7c 7c 83 82 79 7c 85 7c 74 78 73     ~~~y}||..y|.|txs
    1034:	7b 86 7d 79 78 77 8c 88 80 80 80 81 84 8b 7f 7b     {.}yxw.........{
    1044:	7a 7f 7e 81 83 82 86 7f 80 83 7c 7b 80 8f 89 75     z.~.......|{...u
    1054:	7d 7f 7f 7a 79 79 78 78 7d 86 80 84 88 78 6f 80     }..zyyxx}....xo.
    1064:	83 7f 7d 7d 80 83 80 7b 82 86 82 7c 82 80 7f 82     ..}}...{...|....
    1074:	7b 79 82 8b 88 7d 78 74 75 82 8b 7e 78 7f 7b 7e     {y...}xtu..~x.{~
    1084:	7c 7c 7d 6e 71 81 84 7f 7f 7e 79 80 85 82 77 7b     ||}nq....~y...w{
    1094:	81 81 80 7f 87 82 7e 81 89 87 80 7e 7b 82 87 81     ......~....~{...
    10a4:	81 7e 78 7b 7a 7a 7f 84 7f 80 7f 82 80 7c 81 82     .~x{zz.......|..
    10b4:	84 83 7c 78 7f 7b 77 7c 80 80 85 84 82 88 88 7d     ..|x.{w|.......}
    10c4:	7f 7f 7c 86 80 7c 83 87 84 7f 84 80 7e 82 83 7e     ..|..|......~..~
    10d4:	80 86 80 7f 80 84 85 80 7f 83 7c 80 8a 8a 88 81     ..........|.....
    10e4:	78 79 7c 79 7d 84 84 81 83 83 85 81 78 7d 89 84     xy|y}.......x}..
    10f4:	7c 80 85 85 80 81 82 7c 81 80 7b 7c 7e 7d 77 7e     |......|..{|~}w~
    1104:	8d 8b 85 87 83 79 6f 74 7b 7c 7c 82 7e 7a 7e 7f     .....yot{||.~z~.
    1114:	80 7e 80 7e 7c 7f 7d 79 79 7e 7b 7b 7d 7e 82 88     .~.~|.}yy~{{}~..
    1124:	88 78 7d 85 80 7b 77 7d 81 7e 7e 85 83 80 7a 74     .x}..{w}.~~...zt
    1134:	78 7d 7a 7a 83 81 7d 7a 79 7b 7c 83 82 7f 88 88     x}zz..}zy{|.....
    1144:	80 77 78 80 7b 7b 85 82 86 83 78 81 80 80 84 7b     .wx.{{....x....{
    1154:	7b 7d 82 80 7e 82 81 83 86 80 7c 7d 7c 7c 78 7f     {}..~.....|}||x.
    1164:	80 7f 7f 7f 83 85 83 7c 78 7d 7f 7e 78 76 81 77     .......|x}.~xv.w
    1174:	79 86 83 80 7b 7a 81 83 7c 7a 7e 78 79 85 81 84     y...{z..|z~xy...
    1184:	85 79 79 82 81 7b 7b 7e 7b 7d 84 7f 79 7e 7e 7e     .yy..{{~{}..y~~~
    1194:	85 83 88 87 7f 81 7c 7e 85 80 8a 8c 82 84 7c 74     ......|~......|t
    11a4:	79 7b 7e 82 84 87 83 88 83 83 85 78 79 7e 80 85     y{~........xy~..
    11b4:	86 85 7b 7d 90 8a 7c 7d 83 7e 7d 81 80 79 7c 82     ..{}..|}.~}..y|.
    11c4:	79 7a 85 87 7f 7e 79 7c 7d 77 74 77 7b 79 79 7e     yz...~y|}wtw{yy~
    11d4:	81 81 82 81 7e 7d 88 8b 83 80 7d 7a 79 80 7e 7b     ....~}....}zy.~{
    11e4:	84 86 84 88 7d 77 7e 7e 84 85 86 83 7c 80 82 85     ....}w~~....|...
    11f4:	81 78 78 7e 85 7d 7e 84 82 85 81 7d 7e 7d 7f 81     .xx~.}~....}~}..
    1204:	7b 79 83 88 80 7e 86 82 7d 85 84 78 80 86 7e 79     {y...~..}..x..~y
    1214:	83 81 81 81 82 87 7f 7c 82 85 81 7f 81 7f 82 86     .......|........
    1224:	81 7d 7a 7c 7d 7e 7c 7a 7d 7d 81 7f 7c 7d 84 7f     .}z|}~|z}}..|}..
    1234:	77 7d 7e 82 7e 7c 7b 77 7a 87 85 7f 7d 7c 85 80     w}~.~|{wz...}|..
    1244:	7c 83 84 85 83 7c 7c 80 7e 80 82 82 80 7f 84 81     |....||.~.......
    1254:	7f 85 85 81 83 86 85 89 8a 7f 82 8a 7c 7d 86 80     ............|}..
    1264:	7e 84 80 73 74 77 7b 7e 80 86 8b 8d 88 80 7d 7c     ~..stw{~......}|
    1274:	7a 79 7f 7d 7a 7c 7f 88 82 7a 81 84 80 82 81 7e     zy.}z|...z.....~
    1284:	7c 7a 72 74 7a 7c 7d 7a 76 77 7f 79 7b 80 84 84     |zrtz|}zvw.y{...
    1294:	7d 7d 7d 7a 79 77 75 77 79 7c 7e 83 85 89 84 80     }}}zywuwy|~.....
    12a4:	7d 7b 79 78 7d 78 73 78 7e 7e 80 82 7e 7f 83 82     }{yx}xsx~~..~...
    12b4:	83 82 82 83 83 81 84 83 7d 7e 80 7c 7f 84 81 84     ........}~.|....
    12c4:	88 86 8a 87 87 81 82 87 86 80 7b 85 85 84 83 83     ..........{.....
    12d4:	85 85 7a 77 7d 81 7f 7d 7d 79 7c 7b 7b 7c 7a 7c     ..zw}..}}y|{{|z|
    12e4:	82 84 7e 7d 7e 79 7c 7a 77 7c 7e 82 82 7c 80 84     ..~}~y|zw|~..|..
    12f4:	7a 7c 7c 7c 81 82 82 81 7f 80 8a 87 82 82 82 81     z|||............
    1304:	82 84 83 80 7c 82 85 84 81 82 85 81 83 88 85 83     ....|...........
    1314:	84 81 7f 80 84 86 7e 7e 85 83 80 81 7f 7c 7a 7f     ......~~.....|z.
    1324:	83 79 7a 7c 7d 83 81 7e 79 79 7d 81 7e 7f 81 7c     .yz|}..~yy}.~..|
    1334:	7c 7f 7f 78 79 80 82 82 7e 79 7c 87 84 7e 80 7d     |..xy...~y|..~.}
    1344:	7d 7d 7a 7c 7e 7d 82 80 82 87 88 87 83 7f 7c 78     }}z|~}........|x
    1354:	76 78 7e 83 7f 80 81 83 82 7c 7d 81 7d 7a 7d 78     vx~......|}.}z}x
    1364:	7e 7e 7f 82 7f 85 85 7e 82 85 7e 7c 80 7b 79 7d     ~~.....~..~|.{y}
    1374:	7a 82 85 85 83 83 80 82 88 86 84 84 84 85 85 81     z...............
    1384:	86 85 7d 82 7f 7d 7c 79 7e 81 83 81 82 7f 7b 7a     ..}..}|y~.....{z
    1394:	7e 81 79 7b 7e 7c 79 7e 7f 80 7e 77 7c 7c 76 7a     ~.y{~|y~..~w||vz
    13a4:	81 82 7e 7c 81 84 84 81 7c 7b 7b 7a 7b 85 86 81     ..~|....|{{z{...
    13b4:	84 85 82 82 87 88 7f 79 7b 7f 81 82 82 82 81 80     .......y{.......
    13c4:	84 87 82 7f 80 7f 84 88 87 82 80 84 7f 80 82 7f     ................
    13d4:	7e 82 7f 7b 81 86 80 7c 82 80 7e 80 81 7e 7e 7f     ~..{...|..~..~~.
    13e4:	7d 78 7b 7b 7c 7e 76 76 7d 80 81 81 7c 7c 7e 7a     }x{{|~vv}...||~z
    13f4:	7d 7f 7c 7b 81 7e 79 7f 7c 7d 7e 80 82 80 7e 7e     }.|{.~y.|}~...~~
    1404:	81 82 83 7f 7f 7d 7b 81 84 80 7d 7f 84 82 7f 82     .....}{...}.....
    1414:	85 83 81 87 84 7f 80 7e 7f 82 80 81 83 80 81 83     .......~........
    1424:	84 82 80 7f 80 7f 81 82 81 80 86 83 7f 7a 78 7f     .............zx.
    1434:	81 85 80 7d 84 86 82 7f 7f 7d 7a 7d 81 7f 7c 7a     ...}.....}z}..|z
    1444:	7e 81 83 86 80 7c 7e 7a 78 7c 7e 7d 7d 7e 7d 7f     ~....|~zx|~}}~}.
    1454:	7f 7c 7c 7d 7f 7e 79 79 7f 7e 7a 78 7d 84 7e 7b     .||}.~yy.~zx}.~{
    1464:	7e 82 7e 7d 88 85 7a 7c 82 83 7e 80 7f 82 82 82     ~.~}..z|..~.....
    1474:	80 7f 81 80 7d 7e 81 7f 7f 86 89 82 81 7f 80 82     ....}~..........
    1484:	81 7e 7f 7f 81 83 81 83 82 83 82 7d 80 83 85 87     .~.........}....
    1494:	85 7f 80 82 7f 7e 82 83 81 83 80 83 82 83 86 82     .....~..........
    14a4:	7d 83 85 80 7a 7a 7f 7d 79 84 8b 82 82 7d 78 78     }...zz.}y....}xx
    14b4:	7a 7e 80 7d 7e 82 81 83 82 7b 7d 80 80 84 8a 7f     z~.}~....{}.....
    14c4:	76 79 7f 7d 80 80 80 82 7f 81 7d 79 78 7a 7d 82     vy.}......}yxz}.
    14d4:	85 7d 7c 7f 80 7e 7a 7e 81 82 81 7f 7b 7f 82 7f     .}|..~z~....{...
    14e4:	81 83 82 7f 7e 81 83 7c 7e 7f 82 84 7e 81 84 83     ....~..|~...~...
    14f4:	7d 7b 79 80 82 82 83 82 83 81 82 84 7f 7a 7e 80     }{y..........z~.
    1504:	81 7f 82 82 80 82 80 7e 80 7f 81 85 7f 7b 83 83     .......~.....{..
    1514:	7f 7f 7f 7d 7d 7e 7f 82 84 82 80 7f 7a 7c 7f 7f     ...}}~......z|..
    1524:	7b 7b 7a 7a 7a 7e 83 84 81 83 83 7b 72 71 77 78     {{zzz~.....{rqwx
    1534:	7b 7f 86 88 87 83 81 82 7c 79 7e 7a 7a 7f 83 83     {.......|y~zz...
    1544:	82 7f 7b 82 86 81 7d 80 83 7e 7b 7f 7d 7e 81 81     ..{...}..~{.}~..
    1554:	81 82 80 7e 85 84 7b 7a 7c 7e 83 80 7f 81 82 83     ...~..{z|~......
    1564:	82 84 81 84 83 82 7f 7e 7c 7a 7c 7e 83 82 84 8b     .......~|z|~....
    1574:	85 7a 7b 82 7e 79 7b 7d 7d 7c 7d 84 86 80 7e 81     .z{.~y{}}|}...~.
    1584:	80 7f 7e 80 7a 7b 7d 7d 7d 7c 80 83 81 7d 7e 7f     ..~.z{}}}|...}~.
    1594:	7d 7b 7c 79 7c 83 83 86 84 81 81 7c 74 75 7d 7e     }{|y|......|tu}~
    15a4:	7c 81 83 82 82 83 83 82 7f 7e 7f 7d 7d 7b 7e 80     |........~.}}{~.
    15b4:	7d 7e 7e 81 85 86 86 84 84 81 7c 7c 7d 7e 7f 80     }~~.......||}~..
    15c4:	80 84 82 80 7c 81 80 83 83 82 7f 7c 80 83 88 83     ....|......|....
    15d4:	7e 81 7f 7e 81 7e 7f 84 83 80 86 82 7d 7b 7e 82     ~..~.~......}{~.
    15e4:	7f 81 80 7b 7c 86 84 7e 83 83 7e 80 89 84 7f 7f     ...{|..~..~.....
    15f4:	7e 80 7f 7c 7d 7d 7b 7b 83 80 7d 80 80 82 82 81     ~..|}}{{..}.....
    1604:	81 7e 7a 7a 7f 80 81 80 7d 7d 80 82 7f 7e 7f 7d     .~zz....}}...~.}
    1614:	80 7e 7c 7f 7e 80 85 87 82 81 80 7f 7c 7d 7d 7a     .~|.~.......|}}z
    1624:	80 81 80 82 83 87 89 83 7e 80 7e 7b 7d 7e 7d 80     ........~.~{}~}.
    1634:	81 81 83 84 81 83 7f 79 7a 7c 7f 7f 7e 86 86 82     .......yz|..~...
    1644:	80 7d 7e 83 82 82 84 83 7d 78 7b 80 82 82 81 7f     .}~.....}x{.....
    1654:	7b 7b 82 81 7d 7e 80 7f 7c 7f 82 80 83 81 7f 81     {{..}~..|.......
    1664:	7e 7c 7c 7d 7c 7c 7e 81 7f 7c 7e 83 7f 7e 82 7e     ~||}||~..|~..~.~
    1674:	7e 7c 7a 7a 7d 80 81 83 7f 7d 84 87 7f 7e 81 80     ~|zz}....}...~..
    1684:	7e 7e 80 7f 84 85 80 7c 7d 80 7e 7e 7e 7f 7e 80     ~~.....|}.~~~.~.
    1694:	83 84 84 84 82 7d 7b 7c 7e 83 83 7c 7c 81 84 7f     .....}{|~..||...
    16a4:	7f 81 7c 7e 80 7f 7f 81 80 84 86 80 7b 7b 7f 80     ..|~........{{..
    16b4:	80 80 80 81 83 84 81 80 83 87 85 80 7f 80 80 85     ................
    16c4:	81 81 80 80 82 83 7f 7d 80 7d 7c 82 86 83 82 83     .......}.}|.....
    16d4:	81 82 80 7d 7c 7f 7e 7b 7d 7f 84 84 81 83 81 7e     ...}|.~{}......~
    16e4:	7c 7a 79 78 7c 7e 7e 80 82 80 7f 81 83 81 7c 7e     |zyx|~~.......|~
    16f4:	7c 76 7a 7c 7d 7f 7e 7f 7f 81 80 7e 7f 7d 7c 7a     |vz|}.~....~.}|z
    1704:	7c 82 81 7f 7f 82 84 80 7c 7b 82 83 84 85 82 80     |.......|{......
    1714:	7e 7f 83 81 84 81 7e 80 82 84 85 84 7f 7c 80 81     ~.....~......|..
    1724:	7e 7f 7d 7d 83 85 85 82 80 81 80 82 7f 7d 7e 7e     ~.}}.........}~~
    1734:	7b 7f 84 83 82 80 7f 7f 7e 7d 7b 7b 7d 7d 7e 7e     {.......~}{{}}~~
    1744:	82 85 84 82 7f 80 83 7f 82 80 7e 82 85 84 84 87     ..........~.....
    1754:	83 7d 7c 7d 7e 7f 82 85 80 80 83 7f 7a 7a 7c 7e     .}|}~.......zz|~
    1764:	7d 79 7d 80 7e 7c 79 79 7e 7f 7d 80 7f 81 81 81     }y}.~|yy~.}.....
    1774:	80 7f 7f 7c 7c 7d 7c 7f 83 84 80 7f 80 7e 7b 7b     ...||}|......~{{
    1784:	7f 82 82 7f 7c 80 82 80 82 81 80 80 81 83 82 7e     ....|..........~
    1794:	7e 7f 7d 7e 81 82 83 84 82 83 81 7b 80 82 7e 80     ~.}~.......{..~.
    17a4:	82 7c 7e 7e 80 81 81 81 7e 80 7e 7f 7f 7f 7e 7d     .|~~....~.~...~}
    17b4:	7d 7c 7c 80 80 7c 7b 7e 7f 7f 7f 7f 7d 7d 7f 7f     }||..|{~....}}..
    17c4:	7e 7d 7f 7e 7c 7d 7f 82 81 80 7f 7d 81 84 82 81     ~}.~|}.....}....
    17d4:	80 7f 7f 83 83 82 82 7e 7c 80 84 84 84 82 7d 7d     .......~|.....}}
    17e4:	7e 7f 7e 7c 7d 7f 82 82 84 82 7f 81 83 85 81 7d     ~.~|}..........}
    17f4:	83 84 84 84 85 80 7e 82 82 82 82 7f 7c 7b 7d 80     ......~.....|{}.
    1804:	83 83 81 80 80 81 7e 82 83 7d 81 80 7d 80 7e 7d     ......~..}..}.~}
    1814:	80 80 7c 7d 81 83 84 7f 7d 80 7e 7f 80 7e 7e 81     ..|}....}.~..~~.
    1824:	81 80 83 82 7e 7f 81 81 81 80 81 81 81 82 82 82     ....~...........
    1834:	7e 80 7f 7b 7b 7d 7a 79 7f 81 81 7f 7f 83 82 7e     ~..{{}zy.......~
    1844:	7e 7f 7f 7c 79 7c 7e 7e 7f 80 7d 7c 81 84 83 80     ~..|y|~~..}|....
    1854:	7d 7d 7e 7c 7f 80 7b 7e 80 80 82 7f 7f 83 81 7f     }}~|..{~........
    1864:	80 7f 80 84 82 7f 82 83 82 83 82 82 84 82 82 80     ................
    1874:	7d 82 87 83 80 82 80 7e 80 81 7f 7f 80 80 7f 7e     }......~.......~
    1884:	7e 80 80 81 80 7d 7d 7e 7d 7e 81 82 7e 7d 7d 7f     ~....}}~}~..~}}.
    1894:	80 7f 7e 7d 7d 80 81 7f 7e 7c 7d 81 80 7e 82 81     ..~}}...~|}..~..
    18a4:	7e 7d 7e 7e 80 80 7f 82 83 81 80 80 80 80 81 80     ~}~~............
    18b4:	81 80 82 83 80 7e 7f 82 82 81 7f 7f 7e 7b 7b 7d     .....~......~{{}
    18c4:	7e 81 80 7f 82 83 82 81 81 80 7d 7c 7b 7a 7e 7f     ~.........}|{z~.
    18d4:	7d 7f 7e 7e 7f 80 80 81 83 80 7e 7d 7e 80 80 7e     }.~~......~}~..~
    18e4:	7f 80 7e 7e 7f 7f 7f 7e 82 85 7f 80 82 7e 7e 7e     ..~~...~.....~~~
    18f4:	7c 80 82 80 81 82 81 81 83 82 80 81 7f 7f 80 7f     |...............
    1904:	80 7f 81 81 7f 7f 80 80 7f 81 80 80 80 7f 82 80     ................
    1914:	7f 7f 82 83 81 7f 7f 7f 7f 80 7f 7e 7e 83 85 7f     ...........~~...
    1924:	7e 7e 80 83 80 7f 82 83 84 84 83 80 7d 7f 7e 7e     ~~..........}.~~
    1934:	80 80 80 80 81 83 84 84 83 81 7f 7d 7b 7b 80 81     ...........}{{..
    1944:	80 7e 7f 80 80 81 7f 80 81 7e 7d 7d 7d 7e 7d 80     .~.......~}}}~}.
    1954:	80 7f 7d 7e 7e 7f 80 7e 7e 7d 7e 7f 80 7e 7d 7e     ..}~~..~~}~..~}~
    1964:	7e 7e 81 81 81 7f 80 7e 7d 7c 7e 81 80 80 81 81     ~~.....~}|~.....
    1974:	82 80 81 80 80 81 7e 7e 7e 80 7f 7f 7f 81 7f 7f     ......~~~.......
    1984:	7f 7f 7e 80 7d 7d 7f 80 81 81 81 7e 7d 7e 81 7f     ..~.}}.....~}~..
    1994:	7e 7f 7d 7c 81 82 82 81 7d 7f 81 80 80 80 80 80     ~.}|....}.......
    19a4:	7f 82 82 83 80 7d 80 82 80 7e 81 82 82 83 81 7f     .....}...~......
    19b4:	7e 7e 80 83 83 81 7f 80 80 7f 7f 80 7f 7e 81 82     ~~...........~..
    19c4:	82 81 80 80 80 80 80 80 80 7f 80 80 81 82 83 7f     ................
    19d4:	7c 7d 7d 7d 81 82 82 84 81 82 84 83 80 7f 7f 7e     |}}}...........~
    19e4:	7d 81 7e 7c 7e 80 81 80 81 82 82 80 80 80 7f 7e     }.~|~..........~
    19f4:	7c 7d 7d 7f 81 81 7e 7c 7e 80 81 82 81 82 81 7c     |}}...~|~......|
    1a04:	7c 7f 80 7d 7f 81 82 82 81 80 81 7f 7e 7e 7d 7e     |..}........~~}~
    1a14:	7d 7c 7d 7d 7f 80 81 85 83 80 80 81 80 7f 7c 7b     }|}}..........|{
    1a24:	7d 7e 7e 7f 80 82 81 7f 80 83 80 7d 7c 7c 7d 7d     }~~........}||}}
    1a34:	7e 81 83 84 84 82 7e 7b 7b 7d 7e 7f 7f 82 82 7f     ~.....~{{}~.....
    1a44:	81 82 80 80 7f 7c 7d 80 7f 7f 82 82 7f 7e 7d 7e     .....|}......~}~
    1a54:	82 82 7f 7f 82 83 82 81 82 82 83 83 82 81 82 81     ................
    1a64:	80 7f 7f 7f 81 80 80 81 83 84 82 82 81 83 83 80     ................
    1a74:	7e 7d 7e 7d 7e 82 85 85 83 81 83 81 7f 7f 7f 7d     ~}~}~..........}
    1a84:	7d 7f 7e 80 81 80 7f 7c 7e 81 80 82 81 7d 7c 7c     }.~....|~....}||
    1a94:	7c 7f 80 80 83 80 7d 7f 7f 7d 80 7f 7d 7e 7f 7f     |.....}..}..}~..
    1aa4:	7f 7f 80 81 81 7e 7d 82 81 7e 7f 80 7e 7e 7f 80     .....~}..~..~~..
    1ab4:	7f 80 80 81 82 80 82 82 80 80 80 7e 7d 7f 80 80     ...........~}...
    1ac4:	80 80 80 80 81 7f 7e 80 82 81 81 82 81 81 7f 80     ......~.........
    1ad4:	81 80 80 80 80 81 81 80 80 80 7f 7f 7e 7e 82 82     ............~~..
    1ae4:	7e 7e 81 81 7f 80 7f 7f 7f 7e 81 83 81 7f 7f 7d     ~~.......~.....}
    1af4:	7c 7f 7e 7e 80 80 81 81 7f 7f 83 82 7e 7f 80 80     |.~~........~...
    1b04:	7e 7e 7f 80 80 80 80 81 82 80 7d 7b 7c 7c 7e 80     ~~........}{||~.
    1b14:	7f 80 80 7e 7d 80 80 80 81 81 81 81 7f 7d 7f 7f     ...~}........}..
    1b24:	7d 7e 81 81 81 81 80 80 81 81 82 7f 7d 7f 7f 7f     }~..........}...
    1b34:	7f 7e 80 83 81 81 81 7e 7d 7f 7f 80 7f 7f 7f 7e     .~.....~}......~
    1b44:	7f 80 81 80 80 7f 80 81 80 80 7e 7c 7d 7e 7d 7e     ..........~|}~}~
    1b54:	80 82 82 82 81 81 81 80 7f 7d 7d 7e 7f 7e 7f 80     .........}}~.~..
    1b64:	82 80 7e 7f 80 81 7f 7e 81 83 81 80 7f 7f 7f 7f     ..~....~........
    1b74:	7f 7e 7d 7f 82 81 80 81 82 81 82 81 7e 7f 7e 7e     .~}.........~.~~
    1b84:	7e 7f 7f 80 82 80 80 82 81 7f 7f 7e 80 82 82 80     ~..........~....
    1b94:	7e 7f 80 80 81 81 82 81 7f 81 81 81 80 80 80 7f     ~...............
    1ba4:	81 82 81 80 83 82 80 80 81 80 82 81 81 81 80 81     ................
    1bb4:	80 7e 7f 80 80 81 81 80 7f 80 81 82 83 83 82 80     .~..............
    1bc4:	80 80 7e 7e 80 80 80 7f 7f 80 7f 81 82 81 81 7f     ..~~............
    1bd4:	80 81 80 7f 7d 7f 7f 7d 7f 80 80 7e 7f 80 7f 7e     ....}..}...~...~
    1be4:	7f 7f 7e 7e 80 80 81 80 7f 80 81 7f 7d 7f 7f 7e     ..~~........}..~
    1bf4:	7e 7e 7f 7f 7e 7f 80 7e 7e 81 81 81 80 7f 7e 7d     ~~..~..~~.....~}
    1c04:	7f 7e 7d 7d 7d 7d 7e 7f 80 80 81 82 81 81 80 7f     .~}}}}~.........
    1c14:	7e 7d 7f 7f 7e 7f 7f 80 81 81 82 82 82 80 7f 7f     ~}..~...........
    1c24:	7f 7f 7f 80 80 80 80 80 80 80 80 80 81 81 81 81     ................
    1c34:	80 80 7f 7f 80 80 80 7f 80 81 83 83 82 82 83 81     ................
    1c44:	80 7f 7e 7f 7f 80 82 81 81 82 81 80 80 81 81 80     ..~.............
    1c54:	80 80 7f 7f 81 80 80 80 7f 80 81 82 81 81 80 80     ................
    1c64:	7f 7e 7e 7e 7e 7f 80 83 83 81 80 7f 7e 80 80 7f     .~~~~.......~...
    1c74:	7f 7f 7e 7f 81 80 80 81 80 80 80 7f 7f 7e 7e 7f     ..~..........~~.
    1c84:	7f 7e 80 81 80 80 7f 7e 7d 7f 81 7f 7f 7f 7e 7d     .~.....~}.....~}
    1c94:	7e 7f 7f 7f 80 81 7f 7f 81 80 7f 7f 7f 7f 7e 7e     ~.............~~
    1ca4:	7c 7d 80 80 81 83 82 82 81 7f 7e 7e 7f 7f 7e 7e     |}........~~..~~
    1cb4:	80 82 82 81 81 81 80 80 7e 7e 7f 7f 80 81 81 81     ........~~......
    1cc4:	82 80 80 80 80 81 83 81 7f 7f 80 7f 7e 80 82 81     ............~...
    1cd4:	80 80 82 82 82 83 81 80 7f 7f 7f 7f 7f 7f 80 82     ................
    1ce4:	81 81 82 81 80 80 7f 7e 7e 7f 7f 7f 7f 80 81 80     .......~~.......
    1cf4:	81 81 80 7f 7f 7f 7f 81 80 7e 7e 7f 7f 7f 80 80     .........~~.....
    1d04:	81 81 7f 7f 7f 7e 7f 7f 7f 7f 7f 80 7f 80 81 80     .....~..........
    1d14:	80 7f 7f 7e 7d 7e 80 80 7f 7f 80 80 80 80 7f 80     ...~}~..........
    1d24:	7d 7c 7e 82 83 81 80 7f 7f 80 80 7e 7e 80 81 81     }|~........~~...
    1d34:	81 80 7f 7f 80 80 7f 7f 80 84 85 83 80 7e 7c 7b     .............~|{
    1d44:	7c 7e 7f 80 80 7f 7f 80 82 83 83 82 80 7e 7e 7f     |~...........~~.
    1d54:	80 80 80 81 81 80 81 7f 80 81 82 82 82 80 80 80     ................
    1d64:	80 80 7e 7f 80 80 7f 7f 81 82 83 83 81 80 7f 7d     ..~............}
    1d74:	7e 7f 7f 80 7f 80 80 80 80 81 81 80 80 80 80 7f     ~...............
    1d84:	7f 7f 7f 7f 7f 7f 80 81 81 80 80 80 7f 7e 7e 7f     .............~~.
    1d94:	7f 81 82 81 80 80 80 80 7f 7e 7e 7f 80 80 80 80     .........~~.....
    1da4:	80 80 7f 80 7f 7f 7f 7f 7f 7e 80 7f 7f 7f 7f 7f     .........~......
    1db4:	80 80 7e 7e 7e 7f 80 80 80 81 80 7e 7f 80 7f 7f     ..~~~......~....
    1dc4:	7f 7f 80 80 80 80 80 80 81 81 80 80 80 80 80 80     ................
    1dd4:	7e 7f 80 7f 7f 80 81 81 81 81 80 80 80 7f 80 81     ~...............
    1de4:	7f 7f 81 81 80 80 80 80 80 80 80 7f 7e 7f 80 80     ............~...
    1df4:	80 81 81 81 81 81 80 7f 7e 7e 7f 80 80 7f 80 80     ........~~......
    1e04:	7e 80 81 81 80 80 7f 80 80 80 80 80 81 80 80 7f     ~...............
    1e14:	7f 7f 80 81 81 80 81 81 81 81 80 80 80 80 80 80     ................
    1e24:	80 80 7f 7f 80 80 80 80 80 80 80 81 81 80 7f 7f     ................
    1e34:	7f 7f 80 81 80 80 80 7f 80 80 80 7f 7f 7f 80 80     ................
    1e44:	80 80 80 81 80 7f 7f 7f 80 81 80 7f 7f 7f 80 80     ................
    1e54:	81 81 81 80 80 80 7f 7f 80 80 80 7f 80 80 7e 80     ..............~.
    1e64:	80 80 7f 80 81 80 80 7f 7f 7f 80 81 81 81 80 80     ................
    1e74:	80 80 80 7f 7f 80 80 81 80 7f 7f 7f 80 80 7f 7f     ................
    1e84:	80 81 80 7f 7f 7f 7f 7f 7f 7f 80 7f 7f 7f 7f 7f     ................
    1e94:	80 80 81 81 7f 7f 7f 80 7f 7f 80 81 81 80 80 80     ................
    1ea4:	80 80 80 80 7f 7f 80 80 7f 80 80 81 81 81 81 81     ................
    1eb4:	80 80 80 80 7f 7f 80 80 80 80 80 80 80 81 81 80     ................
    1ec4:	80 7f 7f 7f 7f 80 80 7f 80 81 80 80 80 80 80 80     ................
    1ed4:	7f 7f 7f 7f 80 81 80 7e 7f 81 7f 7f 80 80 7f 7f     .......~........
    1ee4:	7f 7e 7f 80 81 80 80 7f 7f 80 80 7f 80 81 80 80     .~..............
    1ef4:	80 80 7f 80 80 81 81 80 81 80 80 80 80 7f 80 80     ................
    1f04:	80 80 80 80 81 82 80 7f 7f 7f 7f 7f 7f 81 81 80     ................
    1f14:	81 81 82 83 82 81 7f 7e 7e 7e 7f 80 80 80 81 81     .......~~~......
    1f24:	81 81 80 80 80 80 80 7f 7f 7f 80 81 81 81 81 81     ................
    1f34:	81 80 7f 7f 80 81 80 7f 80 80 7f 7f 80 80 80 80     ................
    1f44:	7f 80 80 80 80 7f 7f 80 80 7f 80 80 7f 80 81 80     ................
    1f54:	7e 7e 7f 81 81 7f 80 80 7f 7e 7e 7f 7f 80 7f 7f     ~~.......~~.....
    1f64:	7f 80 80 80 80 7f 7f 80 80 7f 7f 7f 7e 7f 80 7f     ............~...
    1f74:	80 80 80 80 80 7f 80 80 7f 7f 7f 7f 80 80 80 80     ................
    1f84:	80 80 80 80 80 81 80 7f 7f 80 80 80 7f 80 81 80     ................
    1f94:	7f 80 80 80 80 80 80 80 80 81 81 80 7f 80 81 80     ................
    1fa4:	7f 80 81 80 80 80 80 80 7f 80 80 80 80 80 80 80     ................
    1fb4:	80 80 80 81 81 81 80 80 80 80 80 80 80 81 81 81     ................
    1fc4:	81 80 80 80 80 80 80 80 81 82 82 81 80 80 80 80     ................
    1fd4:	7f 7f 80 7f 80 80 81 81 81 81 80 7f 7f 7f 7f 7f     ................
    1fe4:	80 80 80 80 7f 7f 80 80 7f 7f 80 7f 7f 7f 7e 7f     ..............~.
    1ff4:	7f 80 81 80 80 80 7f 7e 7f 80 7f 7e 7f 80 80 80     .......~...~....
    2004:	80 7f 80 7f 80 81 81 80 7f 7f 80 80 7f 7f 80 80     ................
    2014:	80 80 80 80 80 80 80 7f 80 80 80 80 81 80 80 80     ................
    2024:	7f 7f 7f 80 7f 7f 80 80 80 81 80 80 81 80 80 80     ................
    2034:	80 80 80 81 80 80 7f 7f 80 7f 80 80 80 80 7f 81     ................
    2044:	82 80 7f 7f 7f 7f 7f 80 80 80 80 81 81 81 81 80     ................
    2054:	7f 7d 7e 7f 80 80 82 80 7f 7f 80 81 81 81 80 80     .}~.............
    2064:	7e 7e 7e 7f 7f 7f 80 80 80 80 80 80 7f 80 80 80     ~~~.............
    2074:	80 7f 7f 7f 80 80 80 80 81 81 81 81 7f 7f 7f 7f     ................
    2084:	80 80 80 81 81 81 80 80 80 80 80 80 81 81 81 81     ................
    2094:	80 80 80 80 80 80 80 7f 7f 80 80 80 80 80 80 7f     ................
    20a4:	7f 80 81 80 80 80 7f 80 80 81 81 80 7f 7f 80 80     ................
    20b4:	7f 80 80 80 80 80 80 80 7f 7f 80 80 80 80 7f 7f     ................
    20c4:	7f 7f 7f 7f 7f 80 7f 7f 80 81 80 80 7f 80 81 81     ................
    20d4:	80 80 80 7f 7f 80 80 80 80 80 80 7f 7f 80 80 80     ................
    20e4:	80 80 80 7f 80 80 80 80 80 81 81 81 7f 7f 80 80     ................
    20f4:	80 80 80 7f 80 80 80 80 80 81 80 80 80 80 80 80     ................
    2104:	80 80 80 80 80 81 81 81 80 80 81 80 80 7f 80 7f     ................
    2114:	7f 80 7f 80 80 80 80 80 80 80 80 7f 7f 7f 7f 7f     ................
    2124:	7e 7f 80 80 7f 80 81 80 80 7f 7f 80 80 80 81 81     ~...............
    2134:	80 80 7f 7f 80 7f 7f 7f 7f 80 81 81 80 81 81 80     ................
    2144:	80 80 80 80 7f 7f 7f 80 7f 80 80 80 80 80 80 80     ................
    2154:	80 81 81 81 81 81 80 80 7f 7f 7f 80 80 80 80 80     ................
    2164:	80 80 80 81 81 80 80 80 7f 7f 80 80 7f 80 81 80     ................
    2174:	80 80 80 80 80 81 81 81 80 80 80 80 80 80 80 80     ................
    2184:	80 7f 80 81 81 80 80 7f 7f 7f 7f 7f 80 81 81 81     ................
    2194:	80 80 80 80 7f 7f 80 80 80 80 80 80 80 80 80 80     ................
    21a4:	80 80 80 7f 7f 7f 7f 7f 7f 7f 7f 80 80 80 80 80     ................
    21b4:	80 80 80 80 80 80 80 7f 7f 7f 80 80 80 80 7f 80     ................
    21c4:	80 80 80 80 80 7f 7f 7f 80 80 80 80 80 80 80 80     ................
    21d4:	81 81 81 80 7f 80 80 80 80 80 80 80 81 80 80 80     ................
    21e4:	80 80 81 81 81 80 80 80 80 80 80 80 80 80 80 80     ................
    21f4:	80 81 81 81 81 80 80 80 80 80 80 80 80 80 80 80     ................
    2204:	80 7f 80 80 80 80 80 7f 7f 80 80 80 80 80 80 80     ................
    2214:	7f 7f 7f 7f 7f 7f 7f 7f 80 80 80 80 80 80 7f 7f     ................
    2224:	7f 7f 80 80 80 80 80 7f 7f 80 80 80 7f 80 80 80     ................
    2234:	80 80 80 80 80 80 80 80 80 80 80 80 80 80 80 80     ................
    2244:	80 80 80 80 80 80 81 80 80 80 80 80 80 80 80 80     ................
    2254:	80 80 7f 80 80 80 80 81 80 80 80 80 80 80 80 80     ................
    2264:	80 80 80 80 80 80 80 80 81 80 80 80 80 80 80 80     ................
    2274:	80 80 80 80 7f 7f 80 80 80 80 80 81 81 81 80 80     ................
    2284:	7f 7f 7f 80 80 80 80 80 80 80 81 80 80 81 80 80     ................
    2294:	80 80 80 80 80 7f 80 80 80 81 81 80 80 80 80 80     ................
    22a4:	80 80 80 80 80 80 80 80 80 80 80 80 80 80 80 80     ................
    22b4:	80 80 7f 7f 7f 80 80 81 81 80 80 80 80 80 80 80     ................
    22c4:	80 80 80 80 80 80 80 80 80 80 80 80 80 80 80 80     ................
    22d4:	80 80 80 80 80 80 80 80 80 80 81 80 80 80 80 80     ................
    22e4:	7f 7f 80 80 80 80 80 80 80 80 80 80 80 7f 80 80     ................
    22f4:	80 80 80 80 80 80 80 80 80 7f 7f 80 80 80 7f 7f     ................
    2304:	80 80 80 80 80 80 80 80 80 80 80 80 80 80 80 80     ................
    2314:	80 80 80 80 80 80 80 80 80 80 80 80 80 80 80 80     ................
    2324:	80 80 80 81 80 80 80 80 80 7f 80 80 80 80 80 80     ................
    2334:	80 80 80 80 80 80 80 80 80 80 80 80 7f 7f 80 80     ................
    2344:	80 80 80 80 80 80 80 80 80 80 80 80 80 7f 80 80     ................
    2354:	80 80 80 80 80 7f 80 80 80 80 80 80 80 80 80 80     ................
    2364:	80 80 80 80 80 80 80 80 80 80 80 80 80 80 80 80     ................
    2374:	80 80 80 80 7f 80 80 80 80 80 80 80 80 80 80 80     ................
    2384:	80 80 80 7f 80 80 80 80 80 80 80 80 80 80 80 80     ................
    2394:	80 80 80 80 80 80 80 80 80 80 80 80 80 80 80 80     ................
    23a4:	80 80 80 80 80 80 80 80 80 7f 80 80 80 80 80 80     ................
    23b4:	80 80 80 80 80 7f 7f 80 80 80 80 80 80 80 80 80     ................
    23c4:	80 80 80 80 80 7f 7f 7f 7f 7f 7f 7f 7f 80 80 80     ................
    23d4:	80 80 80 80 80 80 80 80 80 80 80 80 80 80 80 80     ................
    23e4:	80 80 80 80 80 80 80 80 80 80 80 80 80 80 80 80     ................
    23f4:	80 80 80 80 80 80 80 80 80 80 80 80 80 80 80 80     ................
    2404:	80 80 80 80 80 80 80 80 80 80 80 80 80 80 80 80     ................
    2414:	80 80 80 80 80 80 80 80 80 7f 7f 7f 7f 7f 80 80     ................
    2424:	80 80 80 80 80 80 80 80 80 80 80 80 80 80 80 80     ................
    2434:	80 80 80 80 80 80 80 80 80 80 80 80 80 80 80 80     ................
    2444:	80 80 80 80 80 80 80 80 80 80 80 80 80 80 80 80     ................
    2454:	80 80 80 80 80 80 80 80 80 80 80 80 80 80 80 80     ................
    2464:	80 80 80 80 80 80 80 80 80 80 80 80 80 80 80 80     ................
    2474:	80 80 80 81 80 80 80 80 80 80 80 80 80 80 80 80     ................
    2484:	80 80 80 80 80 80 80 80 80 80 80 80 80 80 80 80     ................
    2494:	80 80 80 80 80 80 80 80 80 80 80 80 80 80 80 80     ................
    24a4:	80 80 80 80 80 80 80 80 80 80 80 80 80 80 80 80     ................
    24b4:	80 80 80 80 80 80 80 80 80 80 80 80 80 80 80 80     ................
    24c4:	80 80 80 80 80 80 80 80 80 80 80 80 80 80 80 80     ................
    24d4:	80 80 80 80 80 80 80 80 80 80 80 80 80 80 80 80     ................
    24e4:	80 80 80 80 80 80 80 80 80 80 80 80 80 80 80 80     ................
    24f4:	80 80 80 80 80 80 80 80 80 80 80 80 80 80 80 80     ................
    2504:	80 80 80 80 80 80 80 80 80 80 80 80 80 80 80 80     ................
    2514:	80 80 80 80 80 80 80 80 80 80 80 80 80 80 80 80     ................
    2524:	80 80 80 80 80 80 80 80 80 80 80 80 80 80 80 80     ................
    2534:	80 80 80 80 80 80 80 80 80 80 80 80 80 80 80 80     ................
    2544:	80 80 80 80 80 80 80 80 80 80 80 80 80 80 80 80     ................
    2554:	80 80 80 80 80 80 80 80 80 80 80 80 80 80 80 80     ................
    2564:	80 80 80 80 80 80 80 80 80 80 80 80 80 80 80 80     ................
    2574:	80 80 80 80 80 80 80 80 80 80 80 80 80 80 80 80     ................
    2584:	80 80 80 80 80 80 80 80 80 80 80 80 80 80 80 80     ................
    2594:	80 80 80 80 80 80 80 80 80 80 80 80 80 80 80 80     ................
    25a4:	80 80 80 80 80 80 80 80 80 80 80 80 80 80 80 80     ................
    25b4:	80 80 80 80 80 80 80 80 80 80 80 80 80 80 80 80     ................
    25c4:	80 80 80 80 80 80 80 80 80 80 80 80 80 80 80 80     ................
    25d4:	80 80 80 80 80 80 80 80 80 80 80 80 80 80 80 80     ................
    25e4:	80 80 80 80 80 80 80 80 80 80 80 80 80 80 80 80     ................
    25f4:	80 80 80 80 80 80 80 80 80 80 80 80 80 80 80 80     ................
    2604:	80 80 80 80 80 80 80 80 80 80 80 80 80 80 80 80     ................
    2614:	80 80 80 80 80 80 80 80 80 80 80 80 80 80 80 80     ................
    2624:	80 80 80 80 80 80 80 80 80 80 80 80 80 80 80 80     ................
    2634:	80 80 80 80 80 80 80 80 80 80 80 80 80 80 80 80     ................
    2644:	80 80 80 80 80 80 80 80 80 80 80 80 80 80 80 80     ................
    2654:	80 80 80 80 80 80 80 80 80 80 80 80 80 80 80 80     ................
    2664:	80 80 80 80 80 80 80 80 80 80 80 80 80 80 80 80     ................
    2674:	80 80 80 80 80 80 80 80 80 80 80 80 80 80 80 80     ................
    2684:	80 80 80 80 80 80 80 80 80 80 80 80 80 80 80 80     ................
    2694:	80 80 80 80 80 80 80 80 80 80 80 80 80 80 80 80     ................
    26a4:	80 80 80 80 80 80 80 80 80 80 80 80 80 80 80 80     ................
    26b4:	80 80 80 80 80 80 80 80 80 80 80 80 80 80 80 80     ................
    26c4:	80 80 80 80 80 80 80 80 80 80 80 80 80 80 80 80     ................
    26d4:	80 80 80 80 80 80 80 80 80 80 80 80 80 80 80 80     ................
    26e4:	80 80 80 80 80 80 80 80 80 80 80 80 80 80 80 80     ................
    26f4:	80 80 80 80 80 80 80 80 80 80 80 80 80 80 80 80     ................
    2704:	80 80 80 80 80 80 80 80 80 80 80 80 80 80 80 80     ................
    2714:	80 80 80 80 80 80 80 80 80 80 80 80 80 80 80 80     ................
    2724:	80 80 80 80 80 80 80 80 80 80 80 80 80 80 80 80     ................
    2734:	80 80 80 80 80 80 80 80 80 80 80 80 80 80 80 80     ................
    2744:	80 80 80 80 80 80 80 80 80 80 80 80 80 80 80 80     ................
    2754:	80 80 80 80 80 80 80 80 80 80 80 80 80 80 80 80     ................
    2764:	80 80 80 80 80 80 80 80 80 80 80 80 80 80 80 80     ................
    2774:	80 80 80 80 80 80 80 80 80 80 80 80 80 80 80 80     ................
    2784:	80 80 80 80 80 80 80 80 80 80 80 80 80 80 80 80     ................
    2794:	80 80 80 80 80 80 80 80 80 80 80 80 80 80 80 80     ................
    27a4:	80 80 80 80 80 80 80 80 80 80 80 80 80 80 80 80     ................
    27b4:	80 80 80 80 80 80 80 80 80 80 80 80 80 80 80 80     ................
    27c4:	80 80 80 80 80 80 80 80 80 80 80 80 80 80 80 80     ................
    27d4:	80 80 80 80 80 80 80 80 80 80 80 80 80 80 80 80     ................
    27e4:	80 80 80 80 80 80 80 80 80 80 80 80 80 80 80 80     ................
    27f4:	80 80 80 80 80 80 80 80 80 80 80 80 80 80 80 80     ................
    2804:	80 80 80 80 80 80 80 80 80 80 80 80 80 80 80 80     ................
    2814:	80 80 80 80 80 80 80 80 80 80 80 80 80 80 80 80     ................
    2824:	80 80 80 80 80 80 80 80 80 80 80 80 80 80 80 80     ................
    2834:	80 80 80 80 80 80 80 80 80 80 80 80 80 80 80 80     ................
    2844:	80 80 80 80 80 80 80 80 80 80 80 80 80 80 80 80     ................
    2854:	80 80 80 80 80 80 80 80 80 80 80 80 80 80 80 80     ................
    2864:	80 80 80 80 80 80 80 80 80 80 80 80 80 80 80 80     ................
    2874:	80 80 80 80 80 80 80 80 80 80 80 80 80 80 80 80     ................
    2884:	80 80 80 80 80 80 80 80 80 80 80 80 80 80 80 80     ................
    2894:	80 80 80 80 80 80 80 80 80 80 80 80 80 80 80 80     ................
    28a4:	80 80 80 80 80 80 80 80 80 80 80 80 80 80 80 80     ................
    28b4:	80 80 80 80 80 80 80 80 80 80 80 80 80 80 80 80     ................
	...

000028c5 <damage_value>:
    28c5:	01 02 04 05 07 0a 0f 11 14 19 1e 23 28 32 4b 64     ...........#(2Kd
	...

000028d6 <__ctors_end>:
    28d6:	11 24       	eor	r1, r1
    28d8:	1f be       	out	0x3f, r1	; 63
    28da:	cf e5       	ldi	r28, 0x5F	; 95
    28dc:	d4 e0       	ldi	r29, 0x04	; 4
    28de:	de bf       	out	0x3e, r29	; 62
    28e0:	cd bf       	out	0x3d, r28	; 61

000028e2 <__do_copy_data>:
    28e2:	10 e0       	ldi	r17, 0x00	; 0
    28e4:	a0 e6       	ldi	r26, 0x60	; 96
    28e6:	b0 e0       	ldi	r27, 0x00	; 0
    28e8:	ea eb       	ldi	r30, 0xBA	; 186
    28ea:	f5 e3       	ldi	r31, 0x35	; 53
    28ec:	02 c0       	rjmp	.+4      	; 0x28f2 <.do_copy_data_start>

000028ee <.do_copy_data_loop>:
    28ee:	05 90       	lpm	r0, Z+
    28f0:	0d 92       	st	X+, r0

000028f2 <.do_copy_data_start>:
    28f2:	a2 36       	cpi	r26, 0x62	; 98
    28f4:	b1 07       	cpc	r27, r17
    28f6:	d9 f7       	brne	.-10     	; 0x28ee <.do_copy_data_loop>

000028f8 <__do_clear_bss>:
    28f8:	10 e0       	ldi	r17, 0x00	; 0
    28fa:	a2 e6       	ldi	r26, 0x62	; 98
    28fc:	b0 e0       	ldi	r27, 0x00	; 0
    28fe:	01 c0       	rjmp	.+2      	; 0x2902 <.do_clear_bss_start>

00002900 <.do_clear_bss_loop>:
    2900:	1d 92       	st	X+, r1

00002902 <.do_clear_bss_start>:
    2902:	a7 3a       	cpi	r26, 0xA7	; 167
    2904:	b1 07       	cpc	r27, r17
    2906:	e1 f7       	brne	.-8      	; 0x2900 <.do_clear_bss_loop>
    2908:	0e 94 a7 16 	call	0x2d4e	; 0x2d4e <main>
    290c:	0c 94 db 1a 	jmp	0x35b6	; 0x35b6 <_exit>

00002910 <__bad_interrupt>:
    2910:	0c 94 00 00 	jmp	0	; 0x0 <__vectors>

00002914 <configuring_ports>:




void configuring_ports(){
IR_LED_DDR |= IR_LED_PIN; //,         ""
    2914:	d3 9a       	sbi	0x1a, 3	; 26
LIFE_LEDS_DDR |= LIFE_LED1_PIN  //,  
    2916:	8a b3       	in	r24, 0x1a	; 26
    2918:	80 6f       	ori	r24, 0xF0	; 240
    291a:	8a bb       	out	0x1a, r24	; 26
				| LIFE_LED2_PIN // ,
				| LIFE_LED3_PIN //  ""
				| LIFE_LED4_PIN;//   

SOUND_DDR |= SOUND_PIN; //   ()
    291c:	bb 9a       	sbi	0x17, 3	; 23
BULLETS_OUT_LED_DDR|=BULLETS_OUT_LED_PIN;
    291e:	a0 9a       	sbi	0x14, 0	; 20
//DDRA |= (1 << 4)|(1<<5)|(1<<6)|(1<<7); //   PORTA.1                                                                                                                                                                      DDRB = 1<<DDB3;						//PB3 (OC0) set as output
//DDRD |= (1 << 7);//  
//DDRB |= (1 << 3);//  
//PORTD &= ~(1 << 7);//   
WOUND_LED_DDR |= WOUND_LED_PIN;
    2920:	8f 9a       	sbi	0x11, 7	; 17
TSOP_DDR &=~TSOP_PIN; //,    -   ""
    2922:	8a 98       	cbi	0x11, 2	; 17

}
    2924:	08 95       	ret

00002926 <init_timer2>:
*      - 
***************************************************************************************/


void init_timer2(void){
OCR2 = F_CPU/IR_F0/2-1;       //    ,  ,    
    2926:	8d ed       	ldi	r24, 0xDD	; 221
    2928:	83 bd       	out	0x23, r24	; 35
TCCR2 = _BV(CS20)|_BV(WGM21); //    -  (  )
    292a:	89 e0       	ldi	r24, 0x09	; 9
    292c:	85 bd       	out	0x25, r24	; 37
                              //     (7 372 800 )
TIMSK |= _BV(OCIE2);          //    /
    292e:	89 b7       	in	r24, 0x39	; 57
    2930:	80 68       	ori	r24, 0x80	; 128
    2932:	89 bf       	out	0x39, r24	; 57
}
    2934:	08 95       	ret

00002936 <init_int0>:

/**************************************************************************************
*       INT0
***************************************************************************************/
void init_int0(void){
DDRD &=~(1<<2); 				//  INT0  
    2936:	8a 98       	cbi	0x11, 2	; 17
MCUCR |=_BV(ISC01);				//   
    2938:	85 b7       	in	r24, 0x35	; 53
    293a:	82 60       	ori	r24, 0x02	; 2
    293c:	85 bf       	out	0x35, r24	; 53
MCUCR &=~_BV(ISC00);			//  
    293e:	85 b7       	in	r24, 0x35	; 53
    2940:	8e 7f       	andi	r24, 0xFE	; 254
    2942:	85 bf       	out	0x35, r24	; 53
GICR |=_BV(INT0); 				//    INT0
    2944:	8b b7       	in	r24, 0x3b	; 59
    2946:	80 64       	ori	r24, 0x40	; 64
    2948:	8b bf       	out	0x3b, r24	; 59

}
    294a:	08 95       	ret

0000294c <set_buffer_bit>:

void set_buffer_bit(uint8_t index, bool value){	//     -
uint8_t byte_index;
uint8_t bit_index;
byte_index = index/8; //,      
bit_index = index - (byte_index*8);//    
    294c:	28 2f       	mov	r18, r24
    294e:	26 95       	lsr	r18
    2950:	26 95       	lsr	r18
    2952:	26 95       	lsr	r18
    2954:	30 e0       	ldi	r19, 0x00	; 0
    2956:	a9 01       	movw	r20, r18
    2958:	93 e0       	ldi	r25, 0x03	; 3
    295a:	44 0f       	add	r20, r20
    295c:	55 1f       	adc	r21, r21
    295e:	9a 95       	dec	r25
    2960:	e1 f7       	brne	.-8      	; 0x295a <set_buffer_bit+0xe>
    2962:	84 1b       	sub	r24, r20
    2964:	f9 01       	movw	r30, r18
    2966:	e3 59       	subi	r30, 0x93	; 147
    2968:	ff 4f       	sbci	r31, 0xFF	; 255
    296a:	90 e0       	ldi	r25, 0x00	; 0
if(value) 
    296c:	66 23       	and	r22, r22
    296e:	79 f0       	breq	.+30     	; 0x298e <set_buffer_bit+0x42>
		{
			rx_buffer[byte_index] |= (1<<(7-bit_index));
    2970:	40 81       	ld	r20, Z
    2972:	27 e0       	ldi	r18, 0x07	; 7
    2974:	30 e0       	ldi	r19, 0x00	; 0
    2976:	28 1b       	sub	r18, r24
    2978:	39 0b       	sbc	r19, r25
    297a:	81 e0       	ldi	r24, 0x01	; 1
    297c:	90 e0       	ldi	r25, 0x00	; 0
    297e:	02 c0       	rjmp	.+4      	; 0x2984 <set_buffer_bit+0x38>
    2980:	88 0f       	add	r24, r24
    2982:	99 1f       	adc	r25, r25
    2984:	2a 95       	dec	r18
    2986:	e2 f7       	brpl	.-8      	; 0x2980 <set_buffer_bit+0x34>
    2988:	48 2b       	or	r20, r24
    298a:	40 83       	st	Z, r20
    298c:	08 95       	ret
		}
else	{
			rx_buffer[byte_index] &= ~(1<<(7-bit_index));
    298e:	40 81       	ld	r20, Z
    2990:	27 e0       	ldi	r18, 0x07	; 7
    2992:	30 e0       	ldi	r19, 0x00	; 0
    2994:	28 1b       	sub	r18, r24
    2996:	39 0b       	sbc	r19, r25
    2998:	81 e0       	ldi	r24, 0x01	; 1
    299a:	90 e0       	ldi	r25, 0x00	; 0
    299c:	02 c0       	rjmp	.+4      	; 0x29a2 <set_buffer_bit+0x56>
    299e:	88 0f       	add	r24, r24
    29a0:	99 1f       	adc	r25, r25
    29a2:	2a 95       	dec	r18
    29a4:	e2 f7       	brpl	.-8      	; 0x299e <set_buffer_bit+0x52>
    29a6:	80 95       	com	r24
    29a8:	84 23       	and	r24, r20
    29aa:	80 83       	st	Z, r24
    29ac:	08 95       	ret

000029ae <send_ir_package>:
*          
***************************************************************************************/


void send_ir_package(void){ //  ("")
cursor_position = 0; 		// -    
    29ae:	10 92 a3 00 	sts	0x00A3, r1
ir_transmitter_on = true;	// 
    29b2:	81 e0       	ldi	r24, 0x01	; 1
    29b4:	80 93 64 00 	sts	0x0064, r24
//while (ir_transmitter_on);	//,   
}
    29b8:	08 95       	ret

000029ba <set_player_id>:
*   
*         ( 1  127)
*        data_packet.player_id
*      data_packet.player_id.(bit_0 ... bit_7) 
***************************************************************************************/
void set_player_id(uint8_t ID){
    29ba:	e4 e8       	ldi	r30, 0x84	; 132
    29bc:	f0 e0       	ldi	r31, 0x00	; 0
    29be:	20 e0       	ldi	r18, 0x00	; 0
    29c0:	30 e0       	ldi	r19, 0x00	; 0
	{
		*p_id_bit++ = IR_ONE; 				//    data_packet.player_id.bit_x
	}
else 
	{
		*p_id_bit++ = IR_ZERO; 
    29c2:	6b e2       	ldi	r22, 0x2B	; 43
p_id_bit = &data_packet.packet.player_id.bit_6; 	//  6 ""  
for (int i=0; i < 7; i++) { 				//   7   ID
ID = ID << 1; 								//    
if (ID&(1<<7)) 								//   = 1
	{
		*p_id_bit++ = IR_ONE; 				//    data_packet.player_id.bit_x
    29c4:	96 e5       	ldi	r25, 0x56	; 86
void set_player_id(uint8_t ID){

uint8_t *p_id_bit; 							//    player_id
p_id_bit = &data_packet.packet.player_id.bit_6; 	//  6 ""  
for (int i=0; i < 7; i++) { 				//   7   ID
ID = ID << 1; 								//    
    29c6:	88 0f       	add	r24, r24
    29c8:	af 01       	movw	r20, r30
    29ca:	4f 5f       	subi	r20, 0xFF	; 255
    29cc:	5f 4f       	sbci	r21, 0xFF	; 255
if (ID&(1<<7)) 								//   = 1
    29ce:	87 ff       	sbrs	r24, 7
    29d0:	02 c0       	rjmp	.+4      	; 0x29d6 <set_player_id+0x1c>
	{
		*p_id_bit++ = IR_ONE; 				//    data_packet.player_id.bit_x
    29d2:	90 83       	st	Z, r25
    29d4:	01 c0       	rjmp	.+2      	; 0x29d8 <set_player_id+0x1e>
	}
else 
	{
		*p_id_bit++ = IR_ZERO; 
    29d6:	60 83       	st	Z, r22
    29d8:	fa 01       	movw	r30, r20
***************************************************************************************/
void set_player_id(uint8_t ID){

uint8_t *p_id_bit; 							//    player_id
p_id_bit = &data_packet.packet.player_id.bit_6; 	//  6 ""  
for (int i=0; i < 7; i++) { 				//   7   ID
    29da:	2f 5f       	subi	r18, 0xFF	; 255
    29dc:	3f 4f       	sbci	r19, 0xFF	; 255
    29de:	27 30       	cpi	r18, 0x07	; 7
    29e0:	31 05       	cpc	r19, r1
    29e2:	89 f7       	brne	.-30     	; 0x29c6 <set_player_id+0xc>
		*p_id_bit++ = IR_ZERO; 
	}

}

data_packet.packet.player_id.bit_7 = IR_ZERO; // ,  ""    0 
    29e4:	8b e2       	ldi	r24, 0x2B	; 43
    29e6:	80 93 83 00 	sts	0x0083, r24

}
    29ea:	08 95       	ret

000029ec <set_team_color>:
***************************************************************************************/



void set_team_color(tteam_color  color){
switch(color){
    29ec:	81 30       	cpi	r24, 0x01	; 1
    29ee:	59 f0       	breq	.+22     	; 0x2a06 <set_team_color+0x1a>
    29f0:	81 30       	cpi	r24, 0x01	; 1
    29f2:	28 f0       	brcs	.+10     	; 0x29fe <set_team_color+0x12>
    29f4:	82 30       	cpi	r24, 0x02	; 2
    29f6:	61 f0       	breq	.+24     	; 0x2a10 <set_team_color+0x24>
    29f8:	83 30       	cpi	r24, 0x03	; 3
    29fa:	b1 f4       	brne	.+44     	; 0x2a28 <set_team_color+0x3c>
    29fc:	10 c0       	rjmp	.+32     	; 0x2a1e <set_team_color+0x32>

		case Red : { //  00 = Red
						data_packet.packet.team_id.bit_0 = IR_ZERO;
    29fe:	8b e2       	ldi	r24, 0x2B	; 43
    2a00:	80 93 8c 00 	sts	0x008C, r24
    2a04:	09 c0       	rjmp	.+18     	; 0x2a18 <set_team_color+0x2c>
						data_packet.packet.team_id.bit_1 = IR_ZERO;
						break;	
					}
		case Blue: { //  01 = Blue
						data_packet.packet.team_id.bit_0 = IR_ONE;
    2a06:	86 e5       	ldi	r24, 0x56	; 86
    2a08:	80 93 8c 00 	sts	0x008C, r24
						data_packet.packet.team_id.bit_1 = IR_ZERO;
    2a0c:	8b e2       	ldi	r24, 0x2B	; 43
    2a0e:	04 c0       	rjmp	.+8      	; 0x2a18 <set_team_color+0x2c>
						break;	
					}
		case Yellow: { //  10 = Yellow
						data_packet.packet.team_id.bit_0 = IR_ZERO;
    2a10:	8b e2       	ldi	r24, 0x2B	; 43
    2a12:	80 93 8c 00 	sts	0x008C, r24
						data_packet.packet.team_id.bit_1 = IR_ONE;
    2a16:	86 e5       	ldi	r24, 0x56	; 86
    2a18:	80 93 8b 00 	sts	0x008B, r24
    2a1c:	08 95       	ret
						break;	
					}
		case Green: { //  11 = Green
						data_packet.packet.team_id.bit_0 = IR_ONE;
    2a1e:	86 e5       	ldi	r24, 0x56	; 86
    2a20:	80 93 8c 00 	sts	0x008C, r24
						data_packet.packet.team_id.bit_1 = IR_ONE;
    2a24:	80 93 8b 00 	sts	0x008B, r24
    2a28:	08 95       	ret

00002a2a <set_gun_damage>:
***************************************************************************************/


void set_gun_damage(tgun_damage damage){

switch(damage){
    2a2a:	87 30       	cpi	r24, 0x07	; 7
    2a2c:	09 f4       	brne	.+2      	; 0x2a30 <set_gun_damage+0x6>
    2a2e:	53 c0       	rjmp	.+166    	; 0x2ad6 <set_gun_damage+0xac>
    2a30:	88 30       	cpi	r24, 0x08	; 8
    2a32:	70 f4       	brcc	.+28     	; 0x2a50 <set_gun_damage+0x26>
    2a34:	83 30       	cpi	r24, 0x03	; 3
    2a36:	99 f1       	breq	.+102    	; 0x2a9e <set_gun_damage+0x74>
    2a38:	84 30       	cpi	r24, 0x04	; 4
    2a3a:	28 f4       	brcc	.+10     	; 0x2a46 <set_gun_damage+0x1c>
    2a3c:	81 30       	cpi	r24, 0x01	; 1
    2a3e:	29 f1       	breq	.+74     	; 0x2a8a <set_gun_damage+0x60>
    2a40:	82 30       	cpi	r24, 0x02	; 2
    2a42:	40 f5       	brcc	.+80     	; 0x2a94 <set_gun_damage+0x6a>
    2a44:	1e c0       	rjmp	.+60     	; 0x2a82 <set_gun_damage+0x58>
    2a46:	85 30       	cpi	r24, 0x05	; 5
    2a48:	c1 f1       	breq	.+112    	; 0x2aba <set_gun_damage+0x90>
    2a4a:	86 30       	cpi	r24, 0x06	; 6
    2a4c:	d8 f5       	brcc	.+118    	; 0x2ac4 <set_gun_damage+0x9a>
    2a4e:	2e c0       	rjmp	.+92     	; 0x2aac <set_gun_damage+0x82>
    2a50:	8b 30       	cpi	r24, 0x0B	; 11
    2a52:	09 f4       	brne	.+2      	; 0x2a56 <set_gun_damage+0x2c>
    2a54:	60 c0       	rjmp	.+192    	; 0x2b16 <set_gun_damage+0xec>
    2a56:	8c 30       	cpi	r24, 0x0C	; 12
    2a58:	38 f4       	brcc	.+14     	; 0x2a68 <set_gun_damage+0x3e>
    2a5a:	89 30       	cpi	r24, 0x09	; 9
    2a5c:	09 f4       	brne	.+2      	; 0x2a60 <set_gun_damage+0x36>
    2a5e:	4d c0       	rjmp	.+154    	; 0x2afa <set_gun_damage+0xd0>
    2a60:	8a 30       	cpi	r24, 0x0A	; 10
    2a62:	08 f0       	brcs	.+2      	; 0x2a66 <set_gun_damage+0x3c>
    2a64:	4f c0       	rjmp	.+158    	; 0x2b04 <set_gun_damage+0xda>
    2a66:	40 c0       	rjmp	.+128    	; 0x2ae8 <set_gun_damage+0xbe>
    2a68:	8d 30       	cpi	r24, 0x0D	; 13
    2a6a:	09 f4       	brne	.+2      	; 0x2a6e <set_gun_damage+0x44>
    2a6c:	62 c0       	rjmp	.+196    	; 0x2b32 <set_gun_damage+0x108>
    2a6e:	8d 30       	cpi	r24, 0x0D	; 13
    2a70:	08 f4       	brcc	.+2      	; 0x2a74 <set_gun_damage+0x4a>
    2a72:	58 c0       	rjmp	.+176    	; 0x2b24 <set_gun_damage+0xfa>
    2a74:	8e 30       	cpi	r24, 0x0E	; 14
    2a76:	09 f4       	brne	.+2      	; 0x2a7a <set_gun_damage+0x50>
    2a78:	67 c0       	rjmp	.+206    	; 0x2b48 <set_gun_damage+0x11e>
    2a7a:	8f 30       	cpi	r24, 0x0F	; 15
    2a7c:	09 f0       	breq	.+2      	; 0x2a80 <set_gun_damage+0x56>
    2a7e:	78 c0       	rjmp	.+240    	; 0x2b70 <set_gun_damage+0x146>
    2a80:	6e c0       	rjmp	.+220    	; 0x2b5e <set_gun_damage+0x134>
		case Damage_1:{  //  0000 = 1
						data_packet.packet.damage.bit_0 = IR_ZERO;
    2a82:	8b e2       	ldi	r24, 0x2B	; 43
    2a84:	80 93 90 00 	sts	0x0090, r24
    2a88:	63 c0       	rjmp	.+198    	; 0x2b50 <set_gun_damage+0x126>
						data_packet.packet.damage.bit_2 = IR_ZERO;
						data_packet.packet.damage.bit_3 = IR_ZERO;
						break;
						}
		case Damage_2:{  //  0001 = 2
						data_packet.packet.damage.bit_0 = IR_ONE;
    2a8a:	86 e5       	ldi	r24, 0x56	; 86
    2a8c:	80 93 90 00 	sts	0x0090, r24
						data_packet.packet.damage.bit_1 = IR_ZERO;
    2a90:	8b e2       	ldi	r24, 0x2B	; 43
    2a92:	5e c0       	rjmp	.+188    	; 0x2b50 <set_gun_damage+0x126>
						data_packet.packet.damage.bit_3 = IR_ZERO;
						break;
						}

		case Damage_4:{  //  0010 = 4
						data_packet.packet.damage.bit_0 = IR_ZERO;
    2a94:	9b e2       	ldi	r25, 0x2B	; 43
    2a96:	90 93 90 00 	sts	0x0090, r25
						data_packet.packet.damage.bit_1 = IR_ONE;
    2a9a:	86 e5       	ldi	r24, 0x56	; 86
    2a9c:	4e c0       	rjmp	.+156    	; 0x2b3a <set_gun_damage+0x110>
						data_packet.packet.damage.bit_3 = IR_ZERO;
						break;
						}

		case Damage_5:{  //  0011 = 5
						data_packet.packet.damage.bit_0 = IR_ONE;
    2a9e:	86 e5       	ldi	r24, 0x56	; 86
    2aa0:	80 93 90 00 	sts	0x0090, r24
						data_packet.packet.damage.bit_1 = IR_ONE;
    2aa4:	80 93 8f 00 	sts	0x008F, r24
						data_packet.packet.damage.bit_2 = IR_ZERO;
    2aa8:	8b e2       	ldi	r24, 0x2B	; 43
    2aaa:	54 c0       	rjmp	.+168    	; 0x2b54 <set_gun_damage+0x12a>
						data_packet.packet.damage.bit_3 = IR_ZERO;
						break;
						}
		case Damage_7:{  //  0100 = 7
						data_packet.packet.damage.bit_0 = IR_ZERO;
    2aac:	9b e2       	ldi	r25, 0x2B	; 43
    2aae:	90 93 90 00 	sts	0x0090, r25
						data_packet.packet.damage.bit_1 = IR_ZERO;
    2ab2:	90 93 8f 00 	sts	0x008F, r25
						data_packet.packet.damage.bit_2 = IR_ONE;
    2ab6:	86 e5       	ldi	r24, 0x56	; 86
    2ab8:	0b c0       	rjmp	.+22     	; 0x2ad0 <set_gun_damage+0xa6>
						data_packet.packet.damage.bit_3 = IR_ZERO;
						break;
						}
		case Damage_10:{  //  0101 = 10
						data_packet.packet.damage.bit_0 = IR_ONE;
    2aba:	96 e5       	ldi	r25, 0x56	; 86
    2abc:	90 93 90 00 	sts	0x0090, r25
						data_packet.packet.damage.bit_1 = IR_ZERO;
    2ac0:	8b e2       	ldi	r24, 0x2B	; 43
    2ac2:	24 c0       	rjmp	.+72     	; 0x2b0c <set_gun_damage+0xe2>
						data_packet.packet.damage.bit_2 = IR_ONE;
						data_packet.packet.damage.bit_3 = IR_ZERO;
						break;
						}
		case Damage_15:{  //  0110 = 15
						data_packet.packet.damage.bit_0 = IR_ZERO;
    2ac4:	9b e2       	ldi	r25, 0x2B	; 43
    2ac6:	90 93 90 00 	sts	0x0090, r25
						data_packet.packet.damage.bit_1 = IR_ONE;
    2aca:	86 e5       	ldi	r24, 0x56	; 86
    2acc:	80 93 8f 00 	sts	0x008F, r24
						data_packet.packet.damage.bit_2 = IR_ONE;
    2ad0:	80 93 8e 00 	sts	0x008E, r24
    2ad4:	36 c0       	rjmp	.+108    	; 0x2b42 <set_gun_damage+0x118>
						data_packet.packet.damage.bit_3 = IR_ZERO;
						break;
						}
		case Damage_17:{  //  0111 = 17
						data_packet.packet.damage.bit_0 = IR_ONE;
    2ad6:	86 e5       	ldi	r24, 0x56	; 86
    2ad8:	80 93 90 00 	sts	0x0090, r24
						data_packet.packet.damage.bit_1 = IR_ONE;
    2adc:	80 93 8f 00 	sts	0x008F, r24
						data_packet.packet.damage.bit_2 = IR_ONE;
    2ae0:	80 93 8e 00 	sts	0x008E, r24
						data_packet.packet.damage.bit_3 = IR_ZERO;
    2ae4:	8b e2       	ldi	r24, 0x2B	; 43
    2ae6:	38 c0       	rjmp	.+112    	; 0x2b58 <set_gun_damage+0x12e>
						break;
						}
		case Damage_20:{  //  1000 = 20
						data_packet.packet.damage.bit_0 = IR_ZERO;
    2ae8:	8b e2       	ldi	r24, 0x2B	; 43
    2aea:	80 93 90 00 	sts	0x0090, r24
						data_packet.packet.damage.bit_1 = IR_ZERO;
    2aee:	80 93 8f 00 	sts	0x008F, r24
						data_packet.packet.damage.bit_2 = IR_ZERO;
    2af2:	80 93 8e 00 	sts	0x008E, r24
						data_packet.packet.damage.bit_3 = IR_ONE;
    2af6:	86 e5       	ldi	r24, 0x56	; 86
    2af8:	2f c0       	rjmp	.+94     	; 0x2b58 <set_gun_damage+0x12e>
						break;
						}

		case Damage_25:{  //  1001 = 25
						data_packet.packet.damage.bit_0 = IR_ONE;
    2afa:	96 e5       	ldi	r25, 0x56	; 86
    2afc:	90 93 90 00 	sts	0x0090, r25
						data_packet.packet.damage.bit_1 = IR_ZERO;
    2b00:	8b e2       	ldi	r24, 0x2B	; 43
    2b02:	e4 cf       	rjmp	.-56     	; 0x2acc <set_gun_damage+0xa2>
						data_packet.packet.damage.bit_3 = IR_ONE;
						break;
						}

		case Damage_30:{  //  1010 = 30
						data_packet.packet.damage.bit_0 = IR_ZERO;
    2b04:	9b e2       	ldi	r25, 0x2B	; 43
    2b06:	90 93 90 00 	sts	0x0090, r25
						data_packet.packet.damage.bit_1 = IR_ONE;
    2b0a:	86 e5       	ldi	r24, 0x56	; 86
    2b0c:	80 93 8f 00 	sts	0x008F, r24
						data_packet.packet.damage.bit_2 = IR_ZERO;
    2b10:	90 93 8e 00 	sts	0x008E, r25
    2b14:	21 c0       	rjmp	.+66     	; 0x2b58 <set_gun_damage+0x12e>
						data_packet.packet.damage.bit_3 = IR_ONE;
						break;
						}
		case Damage_35:{  //  1011 = 35
						data_packet.packet.damage.bit_0 = IR_ONE;
    2b16:	96 e5       	ldi	r25, 0x56	; 86
    2b18:	90 93 90 00 	sts	0x0090, r25
						data_packet.packet.damage.bit_1 = IR_ONE;
    2b1c:	90 93 8f 00 	sts	0x008F, r25
						data_packet.packet.damage.bit_2 = IR_ZERO;
    2b20:	8b e2       	ldi	r24, 0x2B	; 43
    2b22:	d6 cf       	rjmp	.-84     	; 0x2ad0 <set_gun_damage+0xa6>
						data_packet.packet.damage.bit_3 = IR_ONE;
						break;
						}

		case Damage_40:{  //  1100 = 40
						data_packet.packet.damage.bit_0 = IR_ZERO;
    2b24:	8b e2       	ldi	r24, 0x2B	; 43
    2b26:	80 93 90 00 	sts	0x0090, r24
						data_packet.packet.damage.bit_1 = IR_ZERO;
    2b2a:	80 93 8f 00 	sts	0x008F, r24
						data_packet.packet.damage.bit_2 = IR_ONE;
    2b2e:	86 e5       	ldi	r24, 0x56	; 86
    2b30:	11 c0       	rjmp	.+34     	; 0x2b54 <set_gun_damage+0x12a>
						data_packet.packet.damage.bit_3 = IR_ONE;
						break;
						}

		case Damage_50:{  //  1101 = 50
						data_packet.packet.damage.bit_0 = IR_ONE;
    2b32:	96 e5       	ldi	r25, 0x56	; 86
    2b34:	90 93 90 00 	sts	0x0090, r25
						data_packet.packet.damage.bit_1 = IR_ZERO;
    2b38:	8b e2       	ldi	r24, 0x2B	; 43
    2b3a:	80 93 8f 00 	sts	0x008F, r24
						data_packet.packet.damage.bit_2 = IR_ONE;
    2b3e:	90 93 8e 00 	sts	0x008E, r25
						data_packet.packet.damage.bit_3 = IR_ONE;
    2b42:	90 93 8d 00 	sts	0x008D, r25
    2b46:	08 95       	ret
						break;
						}
		case Damage_75:{  //  1110 = 75
						data_packet.packet.damage.bit_0 = IR_ZERO;
    2b48:	8b e2       	ldi	r24, 0x2B	; 43
    2b4a:	80 93 90 00 	sts	0x0090, r24
						data_packet.packet.damage.bit_1 = IR_ONE;
    2b4e:	86 e5       	ldi	r24, 0x56	; 86
    2b50:	80 93 8f 00 	sts	0x008F, r24
						data_packet.packet.damage.bit_2 = IR_ONE;
    2b54:	80 93 8e 00 	sts	0x008E, r24
						data_packet.packet.damage.bit_3 = IR_ONE;
    2b58:	80 93 8d 00 	sts	0x008D, r24
    2b5c:	08 95       	ret
						break;
						}

		case Damage_100:{  //  1111 = 100
						data_packet.packet.damage.bit_0 = IR_ONE;
    2b5e:	86 e5       	ldi	r24, 0x56	; 86
    2b60:	80 93 90 00 	sts	0x0090, r24
						data_packet.packet.damage.bit_1 = IR_ONE;
    2b64:	80 93 8f 00 	sts	0x008F, r24
						data_packet.packet.damage.bit_2 = IR_ONE;
    2b68:	80 93 8e 00 	sts	0x008E, r24
						data_packet.packet.damage.bit_3 = IR_ONE;
    2b6c:	80 93 8d 00 	sts	0x008D, r24
    2b70:	08 95       	ret

00002b72 <get_buffer_bit>:
}




bool get_buffer_bit(uint8_t index){		//     -
    2b72:	48 2f       	mov	r20, r24
uint8_t byte_index;
uint8_t bit_index;
byte_index = index/8; //,      
bit_index = index - (byte_index*8);//    
    2b74:	28 2f       	mov	r18, r24
    2b76:	26 95       	lsr	r18
    2b78:	26 95       	lsr	r18
    2b7a:	26 95       	lsr	r18
    2b7c:	30 e0       	ldi	r19, 0x00	; 0
if(rx_buffer[byte_index]&(1<<(7-bit_index))) return true;
    2b7e:	f9 01       	movw	r30, r18
    2b80:	e3 59       	subi	r30, 0x93	; 147
    2b82:	ff 4f       	sbci	r31, 0xFF	; 255
    2b84:	80 81       	ld	r24, Z
    2b86:	90 e0       	ldi	r25, 0x00	; 0
    2b88:	53 e0       	ldi	r21, 0x03	; 3
    2b8a:	22 0f       	add	r18, r18
    2b8c:	33 1f       	adc	r19, r19
    2b8e:	5a 95       	dec	r21
    2b90:	e1 f7       	brne	.-8      	; 0x2b8a <get_buffer_bit+0x18>
    2b92:	42 1b       	sub	r20, r18
    2b94:	27 e0       	ldi	r18, 0x07	; 7
    2b96:	30 e0       	ldi	r19, 0x00	; 0
    2b98:	24 1b       	sub	r18, r20
    2b9a:	31 09       	sbc	r19, r1
    2b9c:	02 c0       	rjmp	.+4      	; 0x2ba2 <get_buffer_bit+0x30>
    2b9e:	95 95       	asr	r25
    2ba0:	87 95       	ror	r24
    2ba2:	2a 95       	dec	r18
    2ba4:	e2 f7       	brpl	.-8      	; 0x2b9e <get_buffer_bit+0x2c>
else return false;


}
    2ba6:	81 70       	andi	r24, 0x01	; 1
    2ba8:	08 95       	ret

00002baa <team_id>:
tteam_color team_id()//    
{


tteam_color result;
	switch (SW_TEAM_IN&SW_TEAM_MASK) //   "DAMAGE"
    2baa:	89 b3       	in	r24, 0x19	; 25
    2bac:	90 e0       	ldi	r25, 0x00	; 0
    2bae:	83 70       	andi	r24, 0x03	; 3
    2bb0:	90 70       	andi	r25, 0x00	; 0
    2bb2:	81 30       	cpi	r24, 0x01	; 1
    2bb4:	91 05       	cpc	r25, r1
    2bb6:	41 f0       	breq	.+16     	; 0x2bc8 <team_id+0x1e>
    2bb8:	82 30       	cpi	r24, 0x02	; 2
    2bba:	91 05       	cpc	r25, r1
    2bbc:	19 f0       	breq	.+6      	; 0x2bc4 <team_id+0x1a>
    2bbe:	89 2b       	or	r24, r25
    2bc0:	29 f0       	breq	.+10     	; 0x2bcc <team_id+0x22>
    2bc2:	06 c0       	rjmp	.+12     	; 0x2bd0 <team_id+0x26>
    2bc4:	82 e0       	ldi	r24, 0x02	; 2
    2bc6:	08 95       	ret
    2bc8:	81 e0       	ldi	r24, 0x01	; 1
    2bca:	08 95       	ret
    2bcc:	83 e0       	ldi	r24, 0x03	; 3
    2bce:	08 95       	ret

		case 0: //    ON
		{
			result = Green;
			//return result;
			break;
    2bd0:	80 e0       	ldi	r24, 0x00	; 0
		default: result = Red;

	}

return result;
}
    2bd2:	08 95       	ret

00002bd4 <init_timer0>:

void init_timer0(void){

//OCR0 = F_CPU/1024/100-1;		//      100 

OCR0 = 128; // = 0,5
    2bd4:	80 e8       	ldi	r24, 0x80	; 128
    2bd6:	8c bf       	out	0x3c, r24	; 60
TCCR0 = _BV(WGM01)| _BV(WGM00);	//    - fast PWM ( )
    2bd8:	88 e4       	ldi	r24, 0x48	; 72
    2bda:	83 bf       	out	0x33, r24	; 51
TCCR0 |=  _BV(CS00);            //     8 
    2bdc:	83 b7       	in	r24, 0x33	; 51
    2bde:	81 60       	ori	r24, 0x01	; 1
    2be0:	83 bf       	out	0x33, r24	; 51
TCCR0 |=  _BV(COM01);    		//  
    2be2:	83 b7       	in	r24, 0x33	; 51
    2be4:	80 62       	ori	r24, 0x20	; 32
    2be6:	83 bf       	out	0x33, r24	; 51


//TIMSK |= _BV(OCIE0);          //    /
		                      //   

}
    2be8:	08 95       	ret

00002bea <gun_damage>:


tgun_damage gun_damage()//  ,   
{
tgun_damage result;
	switch (SW_DAMAGE_IN&SW_DAMAGE_MASK) //   "DAMAGE"
    2bea:	86 b3       	in	r24, 0x16	; 22
    2bec:	90 e0       	ldi	r25, 0x00	; 0
    2bee:	83 70       	andi	r24, 0x03	; 3
    2bf0:	90 70       	andi	r25, 0x00	; 0
    2bf2:	81 30       	cpi	r24, 0x01	; 1
    2bf4:	91 05       	cpc	r25, r1
    2bf6:	39 f0       	breq	.+14     	; 0x2c06 <gun_damage+0x1c>
    2bf8:	83 30       	cpi	r24, 0x03	; 3
    2bfa:	91 05       	cpc	r25, r1
    2bfc:	31 f0       	breq	.+12     	; 0x2c0a <gun_damage+0x20>
    2bfe:	89 2b       	or	r24, r25
    2c00:	31 f0       	breq	.+12     	; 0x2c0e <gun_damage+0x24>
    2c02:	89 e0       	ldi	r24, 0x09	; 9
    2c04:	08 95       	ret
    2c06:	8d e0       	ldi	r24, 0x0D	; 13
    2c08:	08 95       	ret
    2c0a:	85 e0       	ldi	r24, 0x05	; 5
    2c0c:	08 95       	ret
		
		case SW_DAMAGE_KEY1_PIN|SW_DAMAGE_KEY2_PIN: //    OFF
		{
			result = Damage_10;
			//return result;
			break;
    2c0e:	8f e0       	ldi	r24, 0x0F	; 15

	}

return result;

}
    2c10:	08 95       	ret

00002c12 <init_timer1>:



void init_timer1(void){ // timer1     -8 
TCCR1A &=~_BV(WGM10); //   - CTC (  )
    2c12:	8f b5       	in	r24, 0x2f	; 47
    2c14:	8e 7f       	andi	r24, 0xFE	; 254
    2c16:	8f bd       	out	0x2f, r24	; 47
TCCR1A &=~_BV(WGM11);
    2c18:	8f b5       	in	r24, 0x2f	; 47
    2c1a:	8d 7f       	andi	r24, 0xFD	; 253
    2c1c:	8f bd       	out	0x2f, r24	; 47
TCCR1B |=_BV(WGM12); 
    2c1e:	8e b5       	in	r24, 0x2e	; 46
    2c20:	88 60       	ori	r24, 0x08	; 8
    2c22:	8e bd       	out	0x2e, r24	; 46
TCCR1B &=~_BV(WGM13); 
    2c24:	8e b5       	in	r24, 0x2e	; 46
    2c26:	8f 7e       	andi	r24, 0xEF	; 239
    2c28:	8e bd       	out	0x2e, r24	; 46
TCCR1A &=~_BV(COM1A0);//    OC1A
    2c2a:	8f b5       	in	r24, 0x2f	; 47
    2c2c:	8f 7b       	andi	r24, 0xBF	; 191
    2c2e:	8f bd       	out	0x2f, r24	; 47
TCCR1A &=~_BV(COM1A1);
    2c30:	8f b5       	in	r24, 0x2f	; 47
    2c32:	8f 77       	andi	r24, 0x7F	; 127
    2c34:	8f bd       	out	0x2f, r24	; 47
TCCR1B &=~_BV(COM1B0);//    OC1B
    2c36:	8e b5       	in	r24, 0x2e	; 46
    2c38:	8f 7e       	andi	r24, 0xEF	; 239
    2c3a:	8e bd       	out	0x2e, r24	; 46
TCCR1B &=~_BV(COM1B1);
    2c3c:	8e b5       	in	r24, 0x2e	; 46
    2c3e:	8f 7d       	andi	r24, 0xDF	; 223
    2c40:	8e bd       	out	0x2e, r24	; 46

TCCR1B &=~_BV(CS10); // = 8
    2c42:	8e b5       	in	r24, 0x2e	; 46
    2c44:	8e 7f       	andi	r24, 0xFE	; 254
    2c46:	8e bd       	out	0x2e, r24	; 46
TCCR1B |=_BV(CS11);
    2c48:	8e b5       	in	r24, 0x2e	; 46
    2c4a:	82 60       	ori	r24, 0x02	; 2
    2c4c:	8e bd       	out	0x2e, r24	; 46
TCCR1B &=~_BV(CS12); 
    2c4e:	8e b5       	in	r24, 0x2e	; 46
    2c50:	8b 7f       	andi	r24, 0xFB	; 251
    2c52:	8e bd       	out	0x2e, r24	; 46
//OCR1AL=60;
//OCR1AL=124;
OCR1AL=(F_CPU/8000)/8-1; //      - 8 
    2c54:	89 ef       	ldi	r24, 0xF9	; 249
    2c56:	8a bd       	out	0x2a, r24	; 42
//OCR1AL=248; 
//OCR1AH=0x27;
//OCR1AL=0x0F;


TIMSK |= _BV(OCIE1A);  
    2c58:	89 b7       	in	r24, 0x39	; 57
    2c5a:	80 61       	ori	r24, 0x10	; 16
    2c5c:	89 bf       	out	0x39, r24	; 57
//TIMSK |= _BV(OCIE1B);  

}
    2c5e:	08 95       	ret

00002c60 <display_life>:



void display_life(uint8_t life_value) //     
{
    2c60:	98 2f       	mov	r25, r24

uint8_t integer_part;
	for (int i=0; i<4; i++)
	{life_leds_status[i] = OFF;}
    2c62:	10 92 9f 00 	sts	0x009F, r1
    2c66:	10 92 a0 00 	sts	0x00A0, r1
    2c6a:	10 92 a1 00 	sts	0x00A1, r1
    2c6e:	10 92 a2 00 	sts	0x00A2, r1

integer_part = life_value/2;
    2c72:	86 95       	lsr	r24
    2c74:	40 e0       	ldi	r20, 0x00	; 0
    2c76:	50 e0       	ldi	r21, 0x00	; 0
for (int i=0; i<integer_part; i++)
    2c78:	a8 2f       	mov	r26, r24
    2c7a:	b0 e0       	ldi	r27, 0x00	; 0
{
	life_leds_status[i] = ON;
    2c7c:	8f ef       	ldi	r24, 0xFF	; 255
    2c7e:	06 c0       	rjmp	.+12     	; 0x2c8c <display_life+0x2c>
    2c80:	fa 01       	movw	r30, r20
    2c82:	e1 56       	subi	r30, 0x61	; 97
    2c84:	ff 4f       	sbci	r31, 0xFF	; 255
    2c86:	80 83       	st	Z, r24
uint8_t integer_part;
	for (int i=0; i<4; i++)
	{life_leds_status[i] = OFF;}

integer_part = life_value/2;
for (int i=0; i<integer_part; i++)
    2c88:	4f 5f       	subi	r20, 0xFF	; 255
    2c8a:	5f 4f       	sbci	r21, 0xFF	; 255
    2c8c:	4a 17       	cp	r20, r26
    2c8e:	5b 07       	cpc	r21, r27
    2c90:	bc f3       	brlt	.-18     	; 0x2c80 <display_life+0x20>
{
	life_leds_status[i] = ON;
}


if ((life_value-integer_part*2)>0) 
    2c92:	9d 01       	movw	r18, r26
    2c94:	22 0f       	add	r18, r18
    2c96:	33 1f       	adc	r19, r19
    2c98:	89 2f       	mov	r24, r25
    2c9a:	90 e0       	ldi	r25, 0x00	; 0
    2c9c:	82 1b       	sub	r24, r18
    2c9e:	93 0b       	sbc	r25, r19
    2ca0:	18 16       	cp	r1, r24
    2ca2:	19 06       	cpc	r1, r25
    2ca4:	24 f4       	brge	.+8      	; 0x2cae <display_life+0x4e>
 life_leds_status[integer_part] = FQR_2HZ;
    2ca6:	a1 56       	subi	r26, 0x61	; 97
    2ca8:	bf 4f       	sbci	r27, 0xFF	; 255
    2caa:	8c ec       	ldi	r24, 0xCC	; 204
    2cac:	8c 93       	st	X, r24
    2cae:	08 95       	ret

00002cb0 <bullets_limit>:

uint8_t bullets_limit(void)//  
{

uint16_t result;
	switch (SW_BULLETS_LIMIT_IN&SW_BULLETS_LIMIT_MASK) //   "BULLETS_LIMIT"
    2cb0:	80 b3       	in	r24, 0x10	; 16
    2cb2:	90 e0       	ldi	r25, 0x00	; 0
    2cb4:	80 76       	andi	r24, 0x60	; 96
    2cb6:	90 70       	andi	r25, 0x00	; 0
    2cb8:	80 32       	cpi	r24, 0x20	; 32
    2cba:	91 05       	cpc	r25, r1
    2cbc:	49 f0       	breq	.+18     	; 0x2cd0 <bullets_limit+0x20>
    2cbe:	80 34       	cpi	r24, 0x40	; 64
    2cc0:	91 05       	cpc	r25, r1
    2cc2:	19 f0       	breq	.+6      	; 0x2cca <bullets_limit+0x1a>
    2cc4:	89 2b       	or	r24, r25
    2cc6:	39 f0       	breq	.+14     	; 0x2cd6 <bullets_limit+0x26>
    2cc8:	09 c0       	rjmp	.+18     	; 0x2cdc <bullets_limit+0x2c>
    2cca:	80 e2       	ldi	r24, 0x20	; 32
    2ccc:	90 e0       	ldi	r25, 0x00	; 0
    2cce:	08 95       	ret
    2cd0:	80 e4       	ldi	r24, 0x40	; 64
    2cd2:	90 e0       	ldi	r25, 0x00	; 0
    2cd4:	08 95       	ret
    2cd6:	80 e8       	ldi	r24, 0x80	; 128
    2cd8:	90 e0       	ldi	r25, 0x00	; 0
    2cda:	08 95       	ret

		case 0: //    ON
		{
			result = 128;
			//return result;
			break;
    2cdc:	80 e1       	ldi	r24, 0x10	; 16
    2cde:	90 e0       	ldi	r25, 0x00	; 0
	}

return result;


}
    2ce0:	08 95       	ret

00002ce2 <init_var>:




void init_var(void){            //  
last_simple = 0xFFFF; //     
    2ce2:	8f ef       	ldi	r24, 0xFF	; 255
    2ce4:	9f ef       	ldi	r25, 0xFF	; 255
    2ce6:	90 93 94 00 	sts	0x0094, r25
    2cea:	80 93 93 00 	sts	0x0093, r24
ir_transmitter_on=false; 	//    (    )
    2cee:	10 92 64 00 	sts	0x0064, r1
set_player_id(1);	//  
    2cf2:	81 e0       	ldi	r24, 0x01	; 1
    2cf4:	0e 94 dd 14 	call	0x29ba	; 0x29ba <set_player_id>
set_team_color(team_id());	//  () 
    2cf8:	0e 94 d5 15 	call	0x2baa	; 0x2baa <team_id>
    2cfc:	0e 94 f6 14 	call	0x29ec	; 0x29ec <set_team_color>
set_gun_damage(gun_damage());		//   ()
    2d00:	0e 94 f5 15 	call	0x2bea	; 0x2bea <gun_damage>
    2d04:	0e 94 15 15 	call	0x2a2a	; 0x2a2a <set_gun_damage>
data_packet.packet.header = IR_START;		//   ( )  
    2d08:	8c ea       	ldi	r24, 0xAC	; 172
    2d0a:	80 93 82 00 	sts	0x0082, r24
data_packet.packet.end_of_data = 0;		//0 -   ,      
    2d0e:	10 92 91 00 	sts	0x0091, r1
cursor_position = 0; // -    
    2d12:	10 92 a3 00 	sts	0x00A3, r1
start_bit_received = false;//    
    2d16:	10 92 69 00 	sts	0x0069, r1
bit_in_rx_buff = 0;//  
    2d1a:	10 92 a5 00 	sts	0x00A5, r1
    2d1e:	10 92 a4 00 	sts	0x00A4, r1
rx_event = NOT_EVENT;//  
    2d22:	10 92 6a 00 	sts	0x006A, r1
//reset_clock(); // 
life = 8;// -100% 
    2d26:	88 e0       	ldi	r24, 0x08	; 8
    2d28:	80 93 95 00 	sts	0x0095, r24
key_pressing_duration.key_1    =0;//  
    2d2c:	10 92 76 00 	sts	0x0076, r1
    2d30:	10 92 75 00 	sts	0x0075, r1
						  //
						  //  
key_pressing_duration.key_1_inc=1;//  
    2d34:	80 91 77 00 	lds	r24, 0x0077
    2d38:	81 60       	ori	r24, 0x01	; 1
    2d3a:	80 93 77 00 	sts	0x0077, r24
bullets = bullets_limit();
    2d3e:	0e 94 58 16 	call	0x2cb0	; 0x2cb0 <bullets_limit>
    2d42:	90 e0       	ldi	r25, 0x00	; 0
    2d44:	90 93 6c 00 	sts	0x006C, r25
    2d48:	80 93 6b 00 	sts	0x006B, r24

}
    2d4c:	08 95       	ret

00002d4e <main>:
#include "ltag_ascetic.h"

int main (void) {
    2d4e:	ef 92       	push	r14
    2d50:	ff 92       	push	r15
    2d52:	1f 93       	push	r17
    2d54:	df 93       	push	r29
    2d56:	cf 93       	push	r28
    2d58:	00 d0       	rcall	.+0      	; 0x2d5a <main+0xc>
    2d5a:	00 d0       	rcall	.+0      	; 0x2d5c <main+0xe>
    2d5c:	00 d0       	rcall	.+0      	; 0x2d5e <main+0x10>
    2d5e:	cd b7       	in	r28, 0x3d	; 61
    2d60:	de b7       	in	r29, 0x3e	; 62
configuring_ports();
    2d62:	0e 94 8a 14 	call	0x2914	; 0x2914 <configuring_ports>
*      - 
***************************************************************************************/


void init_timer2(void){
OCR2 = F_CPU/IR_F0/2-1;       //    ,  ,    
    2d66:	8d ed       	ldi	r24, 0xDD	; 221
    2d68:	83 bd       	out	0x23, r24	; 35
TCCR2 = _BV(CS20)|_BV(WGM21); //    -  (  )
    2d6a:	89 e0       	ldi	r24, 0x09	; 9
    2d6c:	85 bd       	out	0x25, r24	; 37
                              //     (7 372 800 )
TIMSK |= _BV(OCIE2);          //    /
    2d6e:	89 b7       	in	r24, 0x39	; 57
    2d70:	80 68       	ori	r24, 0x80	; 128
    2d72:	89 bf       	out	0x39, r24	; 57

int main (void) {
configuring_ports();

init_timer2();
init_int0();
    2d74:	0e 94 9b 14 	call	0x2936	; 0x2936 <init_int0>
init_timer1();
    2d78:	0e 94 09 16 	call	0x2c12	; 0x2c12 <init_timer1>
init_timer0();
    2d7c:	0e 94 ea 15 	call	0x2bd4	; 0x2bd4 <init_timer0>
init_var();                		//  
    2d80:	0e 94 71 16 	call	0x2ce2	; 0x2ce2 <init_var>

sei(); 
    2d84:	78 94       	sei

life_leds_status[0] = ON;
    2d86:	8f ef       	ldi	r24, 0xFF	; 255
    2d88:	80 93 9f 00 	sts	0x009F, r24
timer1 = 0;
    2d8c:	10 92 97 00 	sts	0x0097, r1
    2d90:	10 92 96 00 	sts	0x0096, r1
while (timer1 < 10000);
    2d94:	80 91 96 00 	lds	r24, 0x0096
    2d98:	90 91 97 00 	lds	r25, 0x0097
    2d9c:	80 51       	subi	r24, 0x10	; 16
    2d9e:	97 42       	sbci	r25, 0x27	; 39
    2da0:	c8 f3       	brcs	.-14     	; 0x2d94 <main+0x46>

life_leds_status[1] = ON;
    2da2:	8f ef       	ldi	r24, 0xFF	; 255
    2da4:	80 93 a0 00 	sts	0x00A0, r24
timer1 = 0;
    2da8:	10 92 97 00 	sts	0x0097, r1
    2dac:	10 92 96 00 	sts	0x0096, r1
while (timer1 < 10000);
    2db0:	80 91 96 00 	lds	r24, 0x0096
    2db4:	90 91 97 00 	lds	r25, 0x0097
    2db8:	80 51       	subi	r24, 0x10	; 16
    2dba:	97 42       	sbci	r25, 0x27	; 39
    2dbc:	c8 f3       	brcs	.-14     	; 0x2db0 <main+0x62>

//LIFE_LED3_ON;
life_leds_status[2] = ON;
    2dbe:	8f ef       	ldi	r24, 0xFF	; 255
    2dc0:	80 93 a1 00 	sts	0x00A1, r24
timer1 = 0;
    2dc4:	10 92 97 00 	sts	0x0097, r1
    2dc8:	10 92 96 00 	sts	0x0096, r1
while (timer1 < 10000);
    2dcc:	80 91 96 00 	lds	r24, 0x0096
    2dd0:	90 91 97 00 	lds	r25, 0x0097
    2dd4:	80 51       	subi	r24, 0x10	; 16
    2dd6:	97 42       	sbci	r25, 0x27	; 39
    2dd8:	c8 f3       	brcs	.-14     	; 0x2dcc <main+0x7e>

//LIFE_LED4_ON;
life_leds_status[3] = ON;
    2dda:	8f ef       	ldi	r24, 0xFF	; 255
    2ddc:	80 93 a2 00 	sts	0x00A2, r24
timer1 = 0;
    2de0:	10 92 97 00 	sts	0x0097, r1
    2de4:	10 92 96 00 	sts	0x0096, r1
while (timer1 < 10000);
    2de8:	80 91 96 00 	lds	r24, 0x0096
    2dec:	90 91 97 00 	lds	r25, 0x0097
    2df0:	80 51       	subi	r24, 0x10	; 16
    2df2:	97 42       	sbci	r25, 0x27	; 39
    2df4:	c8 f3       	brcs	.-14     	; 0x2de8 <main+0x9a>

//FIRE_LED_ON;
fire_led_status = ON;
    2df6:	8f ef       	ldi	r24, 0xFF	; 255
    2df8:	80 93 a6 00 	sts	0x00A6, r24
timer1 = 0;
    2dfc:	10 92 97 00 	sts	0x0097, r1
    2e00:	10 92 96 00 	sts	0x0096, r1
while (timer1 < 10000);
    2e04:	80 91 96 00 	lds	r24, 0x0096
    2e08:	90 91 97 00 	lds	r25, 0x0097
    2e0c:	80 51       	subi	r24, 0x10	; 16
    2e0e:	97 42       	sbci	r25, 0x27	; 39
    2e10:	c8 f3       	brcs	.-14     	; 0x2e04 <main+0xb6>

BULLETS_OUT_LED_ON;
    2e12:	a8 9a       	sbi	0x15, 0	; 21
timer1 = 0;
    2e14:	10 92 97 00 	sts	0x0097, r1
    2e18:	10 92 96 00 	sts	0x0096, r1
while (timer1 < 10000);
    2e1c:	80 91 96 00 	lds	r24, 0x0096
    2e20:	90 91 97 00 	lds	r25, 0x0097
    2e24:	80 51       	subi	r24, 0x10	; 16
    2e26:	97 42       	sbci	r25, 0x27	; 39
    2e28:	c8 f3       	brcs	.-14     	; 0x2e1c <main+0xce>

WOUND_LED_ON;
    2e2a:	97 9a       	sbi	0x12, 7	; 18
timer1 = 0;
    2e2c:	10 92 97 00 	sts	0x0097, r1
    2e30:	10 92 96 00 	sts	0x0096, r1
while (timer1 < 10000);
    2e34:	80 91 96 00 	lds	r24, 0x0096
    2e38:	90 91 97 00 	lds	r25, 0x0097
    2e3c:	80 51       	subi	r24, 0x10	; 16
    2e3e:	97 42       	sbci	r25, 0x27	; 39
    2e40:	c8 f3       	brcs	.-14     	; 0x2e34 <main+0xe6>


//LIFE_LED1_OFF;
life_leds_status[0] = OFF;
    2e42:	10 92 9f 00 	sts	0x009F, r1
timer1 = 0;
    2e46:	10 92 97 00 	sts	0x0097, r1
    2e4a:	10 92 96 00 	sts	0x0096, r1
while (timer1 < 10000);
    2e4e:	80 91 96 00 	lds	r24, 0x0096
    2e52:	90 91 97 00 	lds	r25, 0x0097
    2e56:	80 51       	subi	r24, 0x10	; 16
    2e58:	97 42       	sbci	r25, 0x27	; 39
    2e5a:	c8 f3       	brcs	.-14     	; 0x2e4e <main+0x100>

//LIFE_LED2_OFF;
life_leds_status[1] = OFF;
    2e5c:	10 92 a0 00 	sts	0x00A0, r1
timer1 = 0;
    2e60:	10 92 97 00 	sts	0x0097, r1
    2e64:	10 92 96 00 	sts	0x0096, r1
while (timer1 < 10000);
    2e68:	80 91 96 00 	lds	r24, 0x0096
    2e6c:	90 91 97 00 	lds	r25, 0x0097
    2e70:	80 51       	subi	r24, 0x10	; 16
    2e72:	97 42       	sbci	r25, 0x27	; 39
    2e74:	c8 f3       	brcs	.-14     	; 0x2e68 <main+0x11a>

//LIFE_LED3_OFF;
life_leds_status[2] = OFF;
    2e76:	10 92 a1 00 	sts	0x00A1, r1
timer1 = 0;
    2e7a:	10 92 97 00 	sts	0x0097, r1
    2e7e:	10 92 96 00 	sts	0x0096, r1
while (timer1 < 10000);
    2e82:	80 91 96 00 	lds	r24, 0x0096
    2e86:	90 91 97 00 	lds	r25, 0x0097
    2e8a:	80 51       	subi	r24, 0x10	; 16
    2e8c:	97 42       	sbci	r25, 0x27	; 39
    2e8e:	c8 f3       	brcs	.-14     	; 0x2e82 <main+0x134>

//LIFE_LED4_OFF;
life_leds_status[3] = OFF;
    2e90:	10 92 a2 00 	sts	0x00A2, r1
timer1 = 0;
    2e94:	10 92 97 00 	sts	0x0097, r1
    2e98:	10 92 96 00 	sts	0x0096, r1
while (timer1 < 10000);
    2e9c:	80 91 96 00 	lds	r24, 0x0096
    2ea0:	90 91 97 00 	lds	r25, 0x0097
    2ea4:	80 51       	subi	r24, 0x10	; 16
    2ea6:	97 42       	sbci	r25, 0x27	; 39
    2ea8:	c8 f3       	brcs	.-14     	; 0x2e9c <main+0x14e>

//FIRE_LED_OFF;
fire_led_status = OFF;
    2eaa:	10 92 a6 00 	sts	0x00A6, r1
timer1 = 0;
    2eae:	10 92 97 00 	sts	0x0097, r1
    2eb2:	10 92 96 00 	sts	0x0096, r1
while (timer1 < 10000);
    2eb6:	80 91 96 00 	lds	r24, 0x0096
    2eba:	90 91 97 00 	lds	r25, 0x0097
    2ebe:	80 51       	subi	r24, 0x10	; 16
    2ec0:	97 42       	sbci	r25, 0x27	; 39
    2ec2:	c8 f3       	brcs	.-14     	; 0x2eb6 <main+0x168>

BULLETS_OUT_LED_OFF;
    2ec4:	a8 98       	cbi	0x15, 0	; 21
timer1 = 0;
    2ec6:	10 92 97 00 	sts	0x0097, r1
    2eca:	10 92 96 00 	sts	0x0096, r1
while (timer1 < 10000);
    2ece:	80 91 96 00 	lds	r24, 0x0096
    2ed2:	90 91 97 00 	lds	r25, 0x0097
    2ed6:	80 51       	subi	r24, 0x10	; 16
    2ed8:	97 42       	sbci	r25, 0x27	; 39
    2eda:	c8 f3       	brcs	.-14     	; 0x2ece <main+0x180>

WOUND_LED_OFF;
    2edc:	97 98       	cbi	0x12, 7	; 18
//life_led1_status = FQR_1HZ;
//life_led2_status = FQR_2HZ;
//life_led3_status = FQR_4HZ;
//life_led4_status = ON;

display_life(life);
    2ede:	80 91 95 00 	lds	r24, 0x0095
    2ee2:	0e 94 30 16 	call	0x2c60	; 0x2c60 <display_life>
							if(!get_buffer_bit(0)) //    0,      ()
							{
						
								
	//							uint8_t player_id;
								rx_packet = get_packet_value();
    2ee6:	74 e0       	ldi	r23, 0x04	; 4
    2ee8:	e7 2e       	mov	r14, r23
    2eea:	f1 2c       	mov	r15, r1
    2eec:	ec 0e       	add	r14, r28
    2eee:	fd 1e       	adc	r15, r29
//life_led4_status = ON;

display_life(life);

while(1){
switch(keyboard_event)
    2ef0:	20 91 92 00 	lds	r18, 0x0092
    2ef4:	22 23       	and	r18, r18
    2ef6:	d9 f0       	breq	.+54     	; 0x2f2e <main+0x1e0>
    2ef8:	21 30       	cpi	r18, 0x01	; 1
    2efa:	b9 f4       	brne	.+46     	; 0x2f2a <main+0x1dc>
	{
	 	case no_key_pressing: break;
		case key_pressing:
		{
			if (bullets > 0)
    2efc:	80 91 6b 00 	lds	r24, 0x006B
    2f00:	90 91 6c 00 	lds	r25, 0x006C
    2f04:	89 2b       	or	r24, r25
    2f06:	89 f0       	breq	.+34     	; 0x2f2a <main+0x1dc>
			{
				bullets--;//  1  
    2f08:	80 91 6b 00 	lds	r24, 0x006B
    2f0c:	90 91 6c 00 	lds	r25, 0x006C
    2f10:	01 97       	sbiw	r24, 0x01	; 1
    2f12:	90 93 6c 00 	sts	0x006C, r25
    2f16:	80 93 6b 00 	sts	0x006B, r24
				last_simple = 0;//  
    2f1a:	10 92 94 00 	sts	0x0094, r1
    2f1e:	10 92 93 00 	sts	0x0093, r1
*          
***************************************************************************************/


void send_ir_package(void){ //  ("")
cursor_position = 0; 		// -    
    2f22:	10 92 a3 00 	sts	0x00A3, r1
ir_transmitter_on = true;	// 
    2f26:	20 93 64 00 	sts	0x0064, r18
			keyboard_event=no_key_pressing; 
		} 
        break;
  

		default:keyboard_event=no_key_pressing;	
    2f2a:	10 92 92 00 	sts	0x0092, r1

//if (rx_event != NOT_EVENT) 


	{
		switch(rx_event)//,    
    2f2e:	80 91 6a 00 	lds	r24, 0x006A
    2f32:	81 30       	cpi	r24, 0x01	; 1
    2f34:	19 f0       	breq	.+6      	; 0x2f3c <main+0x1ee>
    2f36:	82 30       	cpi	r24, 0x02	; 2
    2f38:	d9 f6       	brne	.-74     	; 0x2ef0 <main+0x1a2>
    2f3a:	7e c0       	rjmp	.+252    	; 0x3038 <main+0x2ea>
					{
						case RX_COMPLETE: 	// 
						{
						//	cli();
							WOUND_LED_ON; //  
    2f3c:	97 9a       	sbi	0x12, 7	; 18
							timer1=0;
    2f3e:	10 92 97 00 	sts	0x0097, r1
    2f42:	10 92 96 00 	sts	0x0096, r1
							while(timer1 < 35000);
    2f46:	80 91 96 00 	lds	r24, 0x0096
    2f4a:	90 91 97 00 	lds	r25, 0x0097
    2f4e:	88 5b       	subi	r24, 0xB8	; 184
    2f50:	98 48       	sbci	r25, 0x88	; 136
    2f52:	c8 f3       	brcs	.-14     	; 0x2f46 <main+0x1f8>
							WOUND_LED_OFF;	//  
    2f54:	97 98       	cbi	0x12, 7	; 18
							rx_event = NOT_EVENT;	
    2f56:	10 92 6a 00 	sts	0x006A, r1
							if(!get_buffer_bit(0)) //    0,      ()
    2f5a:	80 e0       	ldi	r24, 0x00	; 0
    2f5c:	0e 94 b9 15 	call	0x2b72	; 0x2b72 <get_buffer_bit>
    2f60:	88 23       	and	r24, r24
    2f62:	31 f6       	brne	.-116    	; 0x2ef0 <main+0x1a2>

inline trx_packet get_packet_value(){ //    
trx_packet result;
uint8_t byte_tmp;

result.player_id = rx_buffer[0];
    2f64:	80 91 6d 00 	lds	r24, 0x006D
byte_tmp = rx_buffer[1];
    2f68:	e0 91 6e 00 	lds	r30, 0x006E
byte_tmp = byte_tmp << 2; //    
    2f6c:	ee 0f       	add	r30, r30
    2f6e:	ee 0f       	add	r30, r30
byte_tmp = byte_tmp >> 4;
result.damage = pgm_read_byte(&(damage_value[byte_tmp]));
    2f70:	e2 95       	swap	r30
    2f72:	ef 70       	andi	r30, 0x0F	; 15
    2f74:	f0 e0       	ldi	r31, 0x00	; 0
    2f76:	eb 53       	subi	r30, 0x3B	; 59
    2f78:	f7 4d       	sbci	r31, 0xD7	; 215
    2f7a:	e4 91       	lpm	r30, Z+
result.team_id = rx_buffer[1]>>6;
    2f7c:	90 91 6e 00 	lds	r25, 0x006E
    2f80:	8c 83       	std	Y+4, r24	; 0x04
    2f82:	ee 83       	std	Y+6, r30	; 0x06
    2f84:	92 95       	swap	r25
    2f86:	96 95       	lsr	r25
    2f88:	96 95       	lsr	r25
    2f8a:	93 70       	andi	r25, 0x03	; 3
    2f8c:	9d 83       	std	Y+5, r25	; 0x05
							if(!get_buffer_bit(0)) //    0,      ()
							{
						
								
	//							uint8_t player_id;
								rx_packet = get_packet_value();
    2f8e:	aa e9       	ldi	r26, 0x9A	; 154
    2f90:	b0 e0       	ldi	r27, 0x00	; 0
    2f92:	f7 01       	movw	r30, r14
    2f94:	83 e0       	ldi	r24, 0x03	; 3
    2f96:	01 90       	ld	r0, Z+
    2f98:	0d 92       	st	X+, r0
    2f9a:	81 50       	subi	r24, 0x01	; 1
    2f9c:	e1 f7       	brne	.-8      	; 0x2f96 <main+0x248>
								volatile int gg;
								gg++;
    2f9e:	8a 81       	ldd	r24, Y+2	; 0x02
    2fa0:	9b 81       	ldd	r25, Y+3	; 0x03
    2fa2:	01 96       	adiw	r24, 0x01	; 1
    2fa4:	9b 83       	std	Y+3, r25	; 0x03
    2fa6:	8a 83       	std	Y+2, r24	; 0x02

								if (rx_packet.team_id != team_id())//""    ,  , 
    2fa8:	10 91 9b 00 	lds	r17, 0x009B
    2fac:	0e 94 d5 15 	call	0x2baa	; 0x2baa <team_id>
    2fb0:	18 17       	cp	r17, r24
    2fb2:	09 f4       	brne	.+2      	; 0x2fb6 <main+0x268>
    2fb4:	9d cf       	rjmp	.-198    	; 0x2ef0 <main+0x1a2>
								{
									uint8_t damage_tmp;
									switch(rx_packet.damage)
    2fb6:	80 91 9c 00 	lds	r24, 0x009C
    2fba:	82 33       	cpi	r24, 0x32	; 50
    2fbc:	41 f0       	breq	.+16     	; 0x2fce <main+0x280>
    2fbe:	84 36       	cpi	r24, 0x64	; 100
    2fc0:	41 f0       	breq	.+16     	; 0x2fd2 <main+0x284>
    2fc2:	89 31       	cpi	r24, 0x19	; 25
    2fc4:	11 f4       	brne	.+4      	; 0x2fca <main+0x27c>
    2fc6:	92 e0       	ldi	r25, 0x02	; 2
    2fc8:	05 c0       	rjmp	.+10     	; 0x2fd4 <main+0x286>
    2fca:	91 e0       	ldi	r25, 0x01	; 1
    2fcc:	03 c0       	rjmp	.+6      	; 0x2fd4 <main+0x286>
    2fce:	94 e0       	ldi	r25, 0x04	; 4
    2fd0:	01 c0       	rjmp	.+2      	; 0x2fd4 <main+0x286>
										}
																			
										case 50:
										{
											damage_tmp = 4;
											break;
    2fd2:	98 e0       	ldi	r25, 0x08	; 8
										}
										default: damage_tmp = 1;
									}

									
								if (life > damage_tmp) life = life-damage_tmp;
    2fd4:	80 91 95 00 	lds	r24, 0x0095
    2fd8:	98 17       	cp	r25, r24
    2fda:	30 f4       	brcc	.+12     	; 0x2fe8 <main+0x29a>
    2fdc:	80 91 95 00 	lds	r24, 0x0095
    2fe0:	89 1b       	sub	r24, r25
    2fe2:	80 93 95 00 	sts	0x0095, r24
    2fe6:	23 c0       	rjmp	.+70     	; 0x302e <main+0x2e0>
									else 
									{	
										life = 0;
    2fe8:	10 92 95 00 	sts	0x0095, r1
										WOUND_LED_ON;
    2fec:	97 9a       	sbi	0x12, 7	; 18
										display_life(life);//    
    2fee:	80 91 95 00 	lds	r24, 0x0095
    2ff2:	0e 94 30 16 	call	0x2c60	; 0x2c60 <display_life>
    2ff6:	15 c0       	rjmp	.+42     	; 0x3022 <main+0x2d4>
										volatile uint8_t keypress_cntr; // ,      
										keypress_cntr = 0;
										while(keypress_cntr < 20)
										{
											WOUND_LED_INVERT;
    2ff8:	82 b3       	in	r24, 0x12	; 18
    2ffa:	80 58       	subi	r24, 0x80	; 128
    2ffc:	82 bb       	out	0x12, r24	; 18
											timer1 = 0;
    2ffe:	10 92 97 00 	sts	0x0097, r1
    3002:	10 92 96 00 	sts	0x0096, r1
											while (timer1 < 10000);
    3006:	80 91 96 00 	lds	r24, 0x0096
    300a:	90 91 97 00 	lds	r25, 0x0097
    300e:	80 51       	subi	r24, 0x10	; 16
    3010:	97 42       	sbci	r25, 0x27	; 39
    3012:	c8 f3       	brcs	.-14     	; 0x3006 <main+0x2b8>
											switch (FIRE_KEY_IN&FIRE_KEY_PIN) //,   
    3014:	83 b3       	in	r24, 0x13	; 19
    3016:	81 fd       	sbrc	r24, 1
    3018:	04 c0       	rjmp	.+8      	; 0x3022 <main+0x2d4>
											{
												case 0:  keypress_cntr++ ; break;
    301a:	89 81       	ldd	r24, Y+1	; 0x01
    301c:	8f 5f       	subi	r24, 0xFF	; 255
    301e:	89 83       	std	Y+1, r24	; 0x01
    3020:	01 c0       	rjmp	.+2      	; 0x3024 <main+0x2d6>
												case FIRE_KEY_PIN: keypress_cntr = 0; break;
												default: keypress_cntr = 0;	
    3022:	19 82       	std	Y+1, r1	; 0x01
										life = 0;
										WOUND_LED_ON;
										display_life(life);//    
										volatile uint8_t keypress_cntr; // ,      
										keypress_cntr = 0;
										while(keypress_cntr < 20)
    3024:	89 81       	ldd	r24, Y+1	; 0x01
    3026:	84 31       	cpi	r24, 0x14	; 20
    3028:	38 f3       	brcs	.-50     	; 0x2ff8 <main+0x2aa>
												default: keypress_cntr = 0;	
											}
						
										}

										init_var();//"" -   
    302a:	0e 94 71 16 	call	0x2ce2	; 0x2ce2 <init_var>
									}
								
								display_life(life);//    
    302e:	80 91 95 00 	lds	r24, 0x0095
    3032:	0e 94 30 16 	call	0x2c60	; 0x2c60 <display_life>
    3036:	5c cf       	rjmp	.-328    	; 0x2ef0 <main+0x1a2>
						}
						
						case RX_ERROR:		// 
						{
						//	cli();
							BULLETS_OUT_LED_ON;
    3038:	a8 9a       	sbi	0x15, 0	; 21
							timer1=0;
    303a:	10 92 97 00 	sts	0x0097, r1
    303e:	10 92 96 00 	sts	0x0096, r1
							while(timer1 < 35000);
    3042:	80 91 96 00 	lds	r24, 0x0096
    3046:	90 91 97 00 	lds	r25, 0x0097
    304a:	88 5b       	subi	r24, 0xB8	; 184
    304c:	98 48       	sbci	r25, 0x88	; 136
    304e:	c8 f3       	brcs	.-14     	; 0x3042 <main+0x2f4>
							BULLETS_OUT_LED_OFF;
    3050:	a8 98       	cbi	0x15, 0	; 21
							rx_event = NOT_EVENT;	
    3052:	10 92 6a 00 	sts	0x006A, r1
    3056:	4c cf       	rjmp	.-360    	; 0x2ef0 <main+0x1a2>

00003058 <fire_mode>:


TFIRE_MODE_STATUS fire_mode()//    (/)
{
TFIRE_MODE_STATUS result;
if (FIRE_MODE_KEY_IN&FIRE_MODE_KEY_PIN) result = single;
    3058:	83 b3       	in	r24, 0x13	; 19
    305a:	80 95       	com	r24
else  result = queues;
return result;

}
    305c:	88 1f       	adc	r24, r24
    305e:	88 27       	eor	r24, r24
    3060:	88 1f       	adc	r24, r24
    3062:	08 95       	ret

00003064 <__vector_3>:
#include "milshot_snd.h"
/**************************************************************************************
*   
***************************************************************************************/

ISR(TIMER2_COMP_vect){
    3064:	1f 92       	push	r1
    3066:	0f 92       	push	r0
    3068:	0f b6       	in	r0, 0x3f	; 63
    306a:	0f 92       	push	r0
    306c:	11 24       	eor	r1, r1
    306e:	2f 93       	push	r18
    3070:	8f 93       	push	r24
    3072:	9f 93       	push	r25
    3074:	ef 93       	push	r30
    3076:	ff 93       	push	r31
    3078:	df 93       	push	r29
    307a:	cf 93       	push	r28
    307c:	0f 92       	push	r0
    307e:	cd b7       	in	r28, 0x3d	; 61
    3080:	de b7       	in	r29, 0x3e	; 62
timer1++;
    3082:	80 91 96 00 	lds	r24, 0x0096
    3086:	90 91 97 00 	lds	r25, 0x0097
    308a:	01 96       	adiw	r24, 0x01	; 1
    308c:	90 93 97 00 	sts	0x0097, r25
    3090:	80 93 96 00 	sts	0x0096, r24
volatile uint8_t prt;


prt = TSOP_IN&TSOP_PIN; 
    3094:	80 b3       	in	r24, 0x10	; 16
    3096:	84 70       	andi	r24, 0x04	; 4
    3098:	89 83       	std	Y+1, r24	; 0x01
if (prt==0) //  -    (  )
    309a:	89 81       	ldd	r24, Y+1	; 0x01
    309c:	88 23       	and	r24, r24
    309e:	51 f4       	brne	.+20     	; 0x30b4 <__vector_3+0x50>
	{
	//	PORTA &= ~(1 << 0); //  
		low_level_counter++;//       -
    30a0:	80 91 65 00 	lds	r24, 0x0065
    30a4:	90 91 66 00 	lds	r25, 0x0066
    30a8:	01 96       	adiw	r24, 0x01	; 1
    30aa:	90 93 66 00 	sts	0x0066, r25
    30ae:	80 93 65 00 	sts	0x0065, r24
    30b2:	19 c0       	rjmp	.+50     	; 0x30e6 <__vector_3+0x82>
	}
else  //  -    (  )
	{
	//	PORTA |=(1<<0);	//  
		high_level_counter++;///       -
    30b4:	80 91 9d 00 	lds	r24, 0x009D
    30b8:	90 91 9e 00 	lds	r25, 0x009E
    30bc:	01 96       	adiw	r24, 0x01	; 1
    30be:	90 93 9e 00 	sts	0x009E, r25
    30c2:	80 93 9d 00 	sts	0x009D, r24
		if((start_bit_received)&&(high_level_counter > IR_ZERO*8))
    30c6:	80 91 69 00 	lds	r24, 0x0069
    30ca:	88 23       	and	r24, r24
    30cc:	61 f0       	breq	.+24     	; 0x30e6 <__vector_3+0x82>
    30ce:	80 91 9d 00 	lds	r24, 0x009D
    30d2:	90 91 9e 00 	lds	r25, 0x009E
    30d6:	89 55       	subi	r24, 0x59	; 89
    30d8:	91 40       	sbci	r25, 0x01	; 1
    30da:	28 f0       	brcs	.+10     	; 0x30e6 <__vector_3+0x82>
		{//    
			start_bit_received	= false; 	// 
    30dc:	10 92 69 00 	sts	0x0069, r1
			rx_event = RX_COMPLETE;			//  " "		
    30e0:	81 e0       	ldi	r24, 0x01	; 1
    30e2:	80 93 6a 00 	sts	0x006A, r24
		}
	
	
	}
if (ir_transmitter_on==true)
    30e6:	80 91 64 00 	lds	r24, 0x0064
    30ea:	81 30       	cpi	r24, 0x01	; 1
    30ec:	09 f0       	breq	.+2      	; 0x30f0 <__vector_3+0x8c>
    30ee:	44 c0       	rjmp	.+136    	; 0x3178 <__vector_3+0x114>
	{//  

		if (ir_pulse_counter > 0)		//    
    30f0:	80 91 67 00 	lds	r24, 0x0067
    30f4:	90 91 68 00 	lds	r25, 0x0068
    30f8:	18 16       	cp	r1, r24
    30fa:	19 06       	cpc	r1, r25
    30fc:	74 f4       	brge	.+28     	; 0x311a <__vector_3+0xb6>
		{								//  , "" 
			IR_LED_INVERT;  			//   
    30fe:	8b b3       	in	r24, 0x1b	; 27
    3100:	98 e0       	ldi	r25, 0x08	; 8
    3102:	89 27       	eor	r24, r25
    3104:	8b bb       	out	0x1b, r24	; 27
			ir_pulse_counter--;
    3106:	80 91 67 00 	lds	r24, 0x0067
    310a:	90 91 68 00 	lds	r25, 0x0068
    310e:	01 97       	sbiw	r24, 0x01	; 1
    3110:	90 93 68 00 	sts	0x0068, r25
    3114:	80 93 67 00 	sts	0x0067, r24
    3118:	2f c0       	rjmp	.+94     	; 0x3178 <__vector_3+0x114>
		}
		else							//   , 
		{
			IR_LED_OFF;			// - 
    311a:	db 98       	cbi	0x1b, 3	; 27
			if ( ir_space_counter > 0)	//,     
    311c:	80 91 98 00 	lds	r24, 0x0098
    3120:	90 91 99 00 	lds	r25, 0x0099
    3124:	18 16       	cp	r1, r24
    3126:	19 06       	cpc	r1, r25
    3128:	3c f4       	brge	.+14     	; 0x3138 <__vector_3+0xd4>
			{							//,   
			
					IR_LED_OFF;	// -
    312a:	db 98       	cbi	0x1b, 3	; 27
					ir_space_counter--;	//      ""		
    312c:	80 91 98 00 	lds	r24, 0x0098
    3130:	90 91 99 00 	lds	r25, 0x0099
    3134:	01 97       	sbiw	r24, 0x01	; 1
    3136:	19 c0       	rjmp	.+50     	; 0x316a <__vector_3+0x106>
			}
			else //      
			{	 //    ( )
				
				
				if (data_packet.data[cursor_position]!=0) //      
    3138:	e0 91 a3 00 	lds	r30, 0x00A3
    313c:	f0 e0       	ldi	r31, 0x00	; 0
    313e:	ee 57       	subi	r30, 0x7E	; 126
    3140:	ff 4f       	sbci	r31, 0xFF	; 255
    3142:	80 81       	ld	r24, Z
    3144:	88 23       	and	r24, r24
    3146:	b1 f0       	breq	.+44     	; 0x3174 <__vector_3+0x110>
				{
					ir_pulse_counter =data_packet.data[cursor_position++] ; //   
    3148:	20 91 a3 00 	lds	r18, 0x00A3
    314c:	e2 2f       	mov	r30, r18
    314e:	f0 e0       	ldi	r31, 0x00	; 0
    3150:	ee 57       	subi	r30, 0x7E	; 126
    3152:	ff 4f       	sbci	r31, 0xFF	; 255
    3154:	80 81       	ld	r24, Z
    3156:	90 e0       	ldi	r25, 0x00	; 0
    3158:	90 93 68 00 	sts	0x0068, r25
    315c:	80 93 67 00 	sts	0x0067, r24
    3160:	2f 5f       	subi	r18, 0xFF	; 255
    3162:	20 93 a3 00 	sts	0x00A3, r18
					ir_space_counter = IR_SPACE;      //    
    3166:	8b e2       	ldi	r24, 0x2B	; 43
    3168:	90 e0       	ldi	r25, 0x00	; 0
    316a:	90 93 99 00 	sts	0x0099, r25
    316e:	80 93 98 00 	sts	0x0098, r24
    3172:	02 c0       	rjmp	.+4      	; 0x3178 <__vector_3+0x114>
				}
				else //   (,    ,  0)
				{
					ir_transmitter_on=false; // 
    3174:	10 92 64 00 	sts	0x0064, r1
else 	{//  

		}


}
    3178:	0f 90       	pop	r0
    317a:	cf 91       	pop	r28
    317c:	df 91       	pop	r29
    317e:	ff 91       	pop	r31
    3180:	ef 91       	pop	r30
    3182:	9f 91       	pop	r25
    3184:	8f 91       	pop	r24
    3186:	2f 91       	pop	r18
    3188:	0f 90       	pop	r0
    318a:	0f be       	out	0x3f, r0	; 63
    318c:	0f 90       	pop	r0
    318e:	1f 90       	pop	r1
    3190:	18 95       	reti

00003192 <__vector_6>:

/**************************************************************************************
*    timer1A
***************************************************************************************/

ISR(TIMER1_COMPA_vect){
    3192:	1f 92       	push	r1
    3194:	0f 92       	push	r0
    3196:	0f b6       	in	r0, 0x3f	; 63
    3198:	0f 92       	push	r0
    319a:	11 24       	eor	r1, r1
    319c:	2f 93       	push	r18
    319e:	3f 93       	push	r19
    31a0:	4f 93       	push	r20
    31a2:	5f 93       	push	r21
    31a4:	6f 93       	push	r22
    31a6:	7f 93       	push	r23
    31a8:	8f 93       	push	r24
    31aa:	9f 93       	push	r25
    31ac:	af 93       	push	r26
    31ae:	bf 93       	push	r27
    31b0:	ef 93       	push	r30
    31b2:	ff 93       	push	r31
    31b4:	df 93       	push	r29
    31b6:	cf 93       	push	r28
    31b8:	0f 92       	push	r0
    31ba:	cd b7       	in	r28, 0x3d	; 61
    31bc:	de b7       	in	r29, 0x3e	; 62
TIMSK &= ~_BV(OCIE1A);  //  timer1,    
    31be:	89 b7       	in	r24, 0x39	; 57
    31c0:	8f 7e       	andi	r24, 0xEF	; 239
    31c2:	89 bf       	out	0x39, r24	; 57
sei(); 
    31c4:	78 94       	sei

if (bullets >0)//   
    31c6:	80 91 6b 00 	lds	r24, 0x006B
    31ca:	90 91 6c 00 	lds	r25, 0x006C
    31ce:	89 2b       	or	r24, r25
    31d0:	09 f4       	brne	.+2      	; 0x31d4 <__vector_6+0x42>
    31d2:	5b c0       	rjmp	.+182    	; 0x328a <__vector_6+0xf8>
{
	if (last_simple == 0) 
    31d4:	80 91 93 00 	lds	r24, 0x0093
    31d8:	90 91 94 00 	lds	r25, 0x0094
    31dc:	89 2b       	or	r24, r25
    31de:	19 f4       	brne	.+6      	; 0x31e6 <__vector_6+0x54>
	{
		fire_led_status=ON; // 
    31e0:	8f ef       	ldi	r24, 0xFF	; 255
    31e2:	80 93 a6 00 	sts	0x00A6, r24
	//	if (fire_mode()==queues) fire_led_status=FQR_4HZ;
	//	else fire_led_status=ON; // 
	}
	else;
	if (last_simple < sizeof(pSnd))//3913
    31e6:	80 91 93 00 	lds	r24, 0x0093
    31ea:	90 91 94 00 	lds	r25, 0x0094
    31ee:	81 57       	subi	r24, 0x71	; 113
    31f0:	98 42       	sbci	r25, 0x28	; 40
    31f2:	c8 f5       	brcc	.+114    	; 0x3266 <__vector_6+0xd4>
			{
				if (last_simple==(sizeof(pSnd)/100)*CUT_OFF_SOUNT)
    31f4:	80 91 93 00 	lds	r24, 0x0093
    31f8:	90 91 94 00 	lds	r25, 0x0094
    31fc:	86 50       	subi	r24, 0x06	; 6
    31fe:	94 40       	sbci	r25, 0x04	; 4
    3200:	21 f5       	brne	.+72     	; 0x324a <__vector_6+0xb8>
				{
					if (fire_mode()==queues)
    3202:	0e 94 2c 18 	call	0x3058	; 0x3058 <fire_mode>
    3206:	81 30       	cpi	r24, 0x01	; 1
    3208:	01 f5       	brne	.+64     	; 0x324a <__vector_6+0xb8>

inline  TKEYBOARD_STATUS get_keyboard_status(void) {

volatile	TKEYBOARD_STATUS s_ret;
	
	switch (FIRE_KEY_IN&FIRE_KEY_PIN) //,   
    320a:	99 9b       	sbis	0x13, 1	; 19
    320c:	02 c0       	rjmp	.+4      	; 0x3212 <__vector_6+0x80>
		{
			case FIRE_KEY_PIN: s_ret=no_key_pressed  ; break;
    320e:	19 82       	std	Y+1, r1	; 0x01
    3210:	01 c0       	rjmp	.+2      	; 0x3214 <__vector_6+0x82>
			default: s_ret=key_pressed ;	
    3212:	89 83       	std	Y+1, r24	; 0x01
		}



		return s_ret;
    3214:	89 81       	ldd	r24, Y+1	; 0x01
			{
				if (last_simple==(sizeof(pSnd)/100)*CUT_OFF_SOUNT)
				{
					if (fire_mode()==queues)
					{
						if ((get_keyboard_status()==key_pressed)&&(life>0)) // ,   
    3216:	81 30       	cpi	r24, 0x01	; 1
    3218:	a9 f4       	brne	.+42     	; 0x3244 <__vector_6+0xb2>
    321a:	80 91 95 00 	lds	r24, 0x0095
    321e:	88 23       	and	r24, r24
    3220:	89 f0       	breq	.+34     	; 0x3244 <__vector_6+0xb2>
						{
							bullets--;//  1  
    3222:	80 91 6b 00 	lds	r24, 0x006B
    3226:	90 91 6c 00 	lds	r25, 0x006C
    322a:	01 97       	sbiw	r24, 0x01	; 1
    322c:	90 93 6c 00 	sts	0x006C, r25
    3230:	80 93 6b 00 	sts	0x006B, r24
							send_ir_package();	// ""
    3234:	0e 94 d7 14 	call	0x29ae	; 0x29ae <send_ir_package>
							last_simple=0;		//  
    3238:	10 92 94 00 	sts	0x0094, r1
    323c:	10 92 93 00 	sts	0x0093, r1
							fire_led_status=FQR_4HZ;
    3240:	8a ea       	ldi	r24, 0xAA	; 170
    3242:	01 c0       	rjmp	.+2      	; 0x3246 <__vector_6+0xb4>
						}
						else 	fire_led_status=ON;						
    3244:	8f ef       	ldi	r24, 0xFF	; 255
    3246:	80 93 a6 00 	sts	0x00A6, r24
					}
					else;
				}
				else;
				
				OCR0 = pgm_read_byte(&(pSnd[last_simple++]));
    324a:	e0 91 93 00 	lds	r30, 0x0093
    324e:	f0 91 94 00 	lds	r31, 0x0094
    3252:	31 96       	adiw	r30, 0x01	; 1
    3254:	f0 93 94 00 	sts	0x0094, r31
    3258:	e0 93 93 00 	sts	0x0093, r30
    325c:	31 97       	sbiw	r30, 0x01	; 1
    325e:	ec 5a       	subi	r30, 0xAC	; 172
    3260:	ff 4f       	sbci	r31, 0xFF	; 255
    3262:	e4 91       	lpm	r30, Z+
    3264:	ec bf       	out	0x3c, r30	; 60
			}
	if (last_simple >= sizeof(pSnd)&&(last_simple)!=0xFFFF)//3913
    3266:	80 91 93 00 	lds	r24, 0x0093
    326a:	90 91 94 00 	lds	r25, 0x0094
    326e:	81 57       	subi	r24, 0x71	; 113
    3270:	98 42       	sbci	r25, 0x28	; 40
    3272:	58 f0       	brcs	.+22     	; 0x328a <__vector_6+0xf8>
    3274:	80 91 93 00 	lds	r24, 0x0093
    3278:	90 91 94 00 	lds	r25, 0x0094
    327c:	8f 5f       	subi	r24, 0xFF	; 255
    327e:	9f 4f       	sbci	r25, 0xFF	; 255
    3280:	21 f0       	breq	.+8      	; 0x328a <__vector_6+0xf8>
			{
			//	last_simple = 0;
			//	PORTA &= ~(1 << 2);
				OCR0 = 128; // = 0,5
    3282:	80 e8       	ldi	r24, 0x80	; 128
    3284:	8c bf       	out	0x3c, r24	; 60
				fire_led_status=OFF;
    3286:	10 92 a6 00 	sts	0x00A6, r1


}


if (bullets <= 0) // 
    328a:	80 91 6b 00 	lds	r24, 0x006B
    328e:	90 91 6c 00 	lds	r25, 0x006C
    3292:	89 2b       	or	r24, r25
    3294:	c9 f4       	brne	.+50     	; 0x32c8 <__vector_6+0x136>
	{
		BULLETS_OUT_LED_ON; //   " "
    3296:	a8 9a       	sbi	0x15, 0	; 21
		if (last_simple < sizeof(pSnd)) {OCR0 = pgm_read_byte(&(pSnd[last_simple++]));}//    
    3298:	80 91 93 00 	lds	r24, 0x0093
    329c:	90 91 94 00 	lds	r25, 0x0094
    32a0:	81 57       	subi	r24, 0x71	; 113
    32a2:	98 42       	sbci	r25, 0x28	; 40
    32a4:	78 f4       	brcc	.+30     	; 0x32c4 <__vector_6+0x132>
    32a6:	e0 91 93 00 	lds	r30, 0x0093
    32aa:	f0 91 94 00 	lds	r31, 0x0094
    32ae:	31 96       	adiw	r30, 0x01	; 1
    32b0:	f0 93 94 00 	sts	0x0094, r31
    32b4:	e0 93 93 00 	sts	0x0093, r30
    32b8:	31 97       	sbiw	r30, 0x01	; 1
    32ba:	ec 5a       	subi	r30, 0xAC	; 172
    32bc:	ff 4f       	sbci	r31, 0xFF	; 255
    32be:	e4 91       	lpm	r30, Z+
    32c0:	ec bf       	out	0x3c, r30	; 60
    32c2:	02 c0       	rjmp	.+4      	; 0x32c8 <__vector_6+0x136>
		else fire_led_status = OFF;
    32c4:	10 92 a6 00 	sts	0x00A6, r1



static volatile uint16_t tmp_cntr=0;

	if ((tmp_cntr - (tmp_cntr/100)*100)==0)
    32c8:	20 91 62 00 	lds	r18, 0x0062
    32cc:	30 91 63 00 	lds	r19, 0x0063
    32d0:	80 91 62 00 	lds	r24, 0x0062
    32d4:	90 91 63 00 	lds	r25, 0x0063
    32d8:	64 e6       	ldi	r22, 0x64	; 100
    32da:	70 e0       	ldi	r23, 0x00	; 0
    32dc:	0e 94 c7 1a 	call	0x358e	; 0x358e <__udivmodhi4>
    32e0:	84 e6       	ldi	r24, 0x64	; 100
    32e2:	90 e0       	ldi	r25, 0x00	; 0
    32e4:	ac 01       	movw	r20, r24
    32e6:	64 9f       	mul	r22, r20
    32e8:	c0 01       	movw	r24, r0
    32ea:	65 9f       	mul	r22, r21
    32ec:	90 0d       	add	r25, r0
    32ee:	74 9f       	mul	r23, r20
    32f0:	90 0d       	add	r25, r0
    32f2:	11 24       	eor	r1, r1
    32f4:	28 17       	cp	r18, r24
    32f6:	39 07       	cpc	r19, r25
    32f8:	09 f0       	breq	.+2      	; 0x32fc <__vector_6+0x16a>
    32fa:	44 c0       	rjmp	.+136    	; 0x3384 <__vector_6+0x1f2>
	{
		switch(keyboard_event)
    32fc:	80 91 92 00 	lds	r24, 0x0092
    3300:	88 23       	and	r24, r24
    3302:	09 f0       	breq	.+2      	; 0x3306 <__vector_6+0x174>
    3304:	3f c0       	rjmp	.+126    	; 0x3384 <__vector_6+0x1f2>

inline  TKEYBOARD_STATUS get_keyboard_status(void) {

volatile	TKEYBOARD_STATUS s_ret;
	
	switch (FIRE_KEY_IN&FIRE_KEY_PIN) //,   
    3306:	99 9b       	sbis	0x13, 1	; 19
    3308:	02 c0       	rjmp	.+4      	; 0x330e <__vector_6+0x17c>
		{
			case FIRE_KEY_PIN: s_ret=no_key_pressed  ; break;
    330a:	19 82       	std	Y+1, r1	; 0x01
    330c:	02 c0       	rjmp	.+4      	; 0x3312 <__vector_6+0x180>
			default: s_ret=key_pressed ;	
    330e:	81 e0       	ldi	r24, 0x01	; 1
    3310:	89 83       	std	Y+1, r24	; 0x01
		}



		return s_ret;
    3312:	89 81       	ldd	r24, Y+1	; 0x01

inline  TKEYBOARD_EVENT test_keyboard(void){
	TKEYBOARD_STATUS key_status;
	TKEYBOARD_EVENT ret_ev;
	key_status=get_keyboard_status();
	switch(key_status)  //,  
    3314:	88 23       	and	r24, r24
    3316:	19 f0       	breq	.+6      	; 0x331e <__vector_6+0x18c>
    3318:	81 30       	cpi	r24, 0x01	; 1
    331a:	81 f5       	brne	.+96     	; 0x337c <__vector_6+0x1ea>
    331c:	11 c0       	rjmp	.+34     	; 0x3340 <__vector_6+0x1ae>
	{
		case no_key_pressed: 
		{
			if (key_pressing_duration.key_1>= SHORT_DURATION)
    331e:	80 91 75 00 	lds	r24, 0x0075
    3322:	90 91 76 00 	lds	r25, 0x0076
    3326:	04 97       	sbiw	r24, 0x04	; 4
    3328:	88 f4       	brcc	.+34     	; 0x334c <__vector_6+0x1ba>
			}

			else 
			{
				ret_ev=no_key_pressing;
                key_pressing_duration.key_1    =0;
    332a:	10 92 76 00 	sts	0x0076, r1
    332e:	10 92 75 00 	sts	0x0075, r1
                key_pressing_duration.key_1_inc=1;
    3332:	80 91 77 00 	lds	r24, 0x0077
    3336:	81 60       	ori	r24, 0x01	; 1
    3338:	80 93 77 00 	sts	0x0077, r24
    333c:	80 e0       	ldi	r24, 0x00	; 0
    333e:	20 c0       	rjmp	.+64     	; 0x3380 <__vector_6+0x1ee>
		
		} 
		break;
	 	case key_pressed  : //  1
		{ 
			if(key_pressing_duration.key_1>= SHORT_DURATION)
    3340:	80 91 75 00 	lds	r24, 0x0075
    3344:	90 91 76 00 	lds	r25, 0x0076
    3348:	04 97       	sbiw	r24, 0x04	; 4
    334a:	58 f0       	brcs	.+22     	; 0x3362 <__vector_6+0x1d0>
			{
				ret_ev=key_pressing;
             	key_pressing_duration.key_1    =0;
    334c:	10 92 76 00 	sts	0x0076, r1
    3350:	10 92 75 00 	sts	0x0075, r1
                key_pressing_duration.key_1_inc=0;
    3354:	80 91 77 00 	lds	r24, 0x0077
    3358:	8e 7f       	andi	r24, 0xFE	; 254
    335a:	80 93 77 00 	sts	0x0077, r24
    335e:	81 e0       	ldi	r24, 0x01	; 1
    3360:	0f c0       	rjmp	.+30     	; 0x3380 <__vector_6+0x1ee>
			} 
			else 
			{
				key_pressing_duration.key_1 += key_pressing_duration.key_1_inc; 
    3362:	80 91 75 00 	lds	r24, 0x0075
    3366:	90 91 76 00 	lds	r25, 0x0076
    336a:	20 91 77 00 	lds	r18, 0x0077
    336e:	21 70       	andi	r18, 0x01	; 1
    3370:	82 0f       	add	r24, r18
    3372:	91 1d       	adc	r25, r1
    3374:	90 93 76 00 	sts	0x0076, r25
    3378:	80 93 75 00 	sts	0x0075, r24
                ret_ev=keyboard_event;

			}
		}
		break;
		default: ret_ev=keyboard_event;
    337c:	80 91 92 00 	lds	r24, 0x0092
	{
		switch(keyboard_event)
			{
		  	case no_key_pressing: 
		  		{
					keyboard_event=test_keyboard(); 
    3380:	80 93 92 00 	sts	0x0092, r24



//cli();

if (++tmp_cntr > 1000) //  
    3384:	80 91 62 00 	lds	r24, 0x0062
    3388:	90 91 63 00 	lds	r25, 0x0063
    338c:	01 96       	adiw	r24, 0x01	; 1
    338e:	90 93 63 00 	sts	0x0063, r25
    3392:	80 93 62 00 	sts	0x0062, r24
    3396:	80 91 62 00 	lds	r24, 0x0062
    339a:	90 91 63 00 	lds	r25, 0x0063
    339e:	89 5e       	subi	r24, 0xE9	; 233
    33a0:	93 40       	sbci	r25, 0x03	; 3
    33a2:	08 f4       	brcc	.+2      	; 0x33a6 <__vector_6+0x214>
    33a4:	3d c0       	rjmp	.+122    	; 0x3420 <__vector_6+0x28e>
		
		
		
		//test_keyboard();
		//LIFE_LED1_INVERT;
		tmp_cntr = 0;
    33a6:	10 92 63 00 	sts	0x0063, r1
    33aa:	10 92 62 00 	sts	0x0062, r1
		static volatile uint8_t bit_mask = 0b00000001;
	
		if ((life_leds_status[0]&bit_mask)==0) 
    33ae:	90 91 9f 00 	lds	r25, 0x009F
    33b2:	80 91 60 00 	lds	r24, 0x0060
    33b6:	89 23       	and	r24, r25
    33b8:	11 f4       	brne	.+4      	; 0x33be <__vector_6+0x22c>
			{
				LIFE_LED1_OFF;
    33ba:	dc 98       	cbi	0x1b, 4	; 27
    33bc:	01 c0       	rjmp	.+2      	; 0x33c0 <__vector_6+0x22e>
			}
		else 
			{
				LIFE_LED1_ON;
    33be:	dc 9a       	sbi	0x1b, 4	; 27
			};
		if ((life_leds_status[1]&bit_mask)==0) 
    33c0:	90 91 a0 00 	lds	r25, 0x00A0
    33c4:	80 91 60 00 	lds	r24, 0x0060
    33c8:	89 23       	and	r24, r25
    33ca:	11 f4       	brne	.+4      	; 0x33d0 <__vector_6+0x23e>
			{
				LIFE_LED2_OFF;
    33cc:	dd 98       	cbi	0x1b, 5	; 27
    33ce:	01 c0       	rjmp	.+2      	; 0x33d2 <__vector_6+0x240>
			}
		else 
			{
				LIFE_LED2_ON;
    33d0:	dd 9a       	sbi	0x1b, 5	; 27
			};
		if ((life_leds_status[2]&bit_mask)==0) 
    33d2:	90 91 a1 00 	lds	r25, 0x00A1
    33d6:	80 91 60 00 	lds	r24, 0x0060
    33da:	89 23       	and	r24, r25
    33dc:	11 f4       	brne	.+4      	; 0x33e2 <__vector_6+0x250>
			{
				LIFE_LED3_OFF;
    33de:	de 98       	cbi	0x1b, 6	; 27
    33e0:	01 c0       	rjmp	.+2      	; 0x33e4 <__vector_6+0x252>
			}
		else 
			{
				LIFE_LED3_ON;
    33e2:	de 9a       	sbi	0x1b, 6	; 27
			};

		if ((life_leds_status[3]&bit_mask)==0) 
    33e4:	90 91 a2 00 	lds	r25, 0x00A2
    33e8:	80 91 60 00 	lds	r24, 0x0060
    33ec:	89 23       	and	r24, r25
    33ee:	11 f4       	brne	.+4      	; 0x33f4 <__vector_6+0x262>
			{
				LIFE_LED4_OFF;
    33f0:	df 98       	cbi	0x1b, 7	; 27
    33f2:	01 c0       	rjmp	.+2      	; 0x33f6 <__vector_6+0x264>
			}
		else 
			{
				LIFE_LED4_ON;
    33f4:	df 9a       	sbi	0x1b, 7	; 27
			};
		if ((fire_led_status&bit_mask)==0)
    33f6:	90 91 a6 00 	lds	r25, 0x00A6
    33fa:	80 91 60 00 	lds	r24, 0x0060
    33fe:	89 23       	and	r24, r25
    3400:	11 f4       	brne	.+4      	; 0x3406 <__vector_6+0x274>
			{
				FIRE_LED_OFF;
    3402:	da 98       	cbi	0x1b, 2	; 27
    3404:	01 c0       	rjmp	.+2      	; 0x3408 <__vector_6+0x276>
			}
		else
			{
				FIRE_LED_ON;
    3406:	da 9a       	sbi	0x1b, 2	; 27
			};


		bit_mask = (bit_mask<<1);
    3408:	80 91 60 00 	lds	r24, 0x0060
    340c:	88 0f       	add	r24, r24
    340e:	80 93 60 00 	sts	0x0060, r24
		if (bit_mask == 0)  bit_mask = 0b00000001;
    3412:	80 91 60 00 	lds	r24, 0x0060
    3416:	88 23       	and	r24, r24
    3418:	19 f4       	brne	.+6      	; 0x3420 <__vector_6+0x28e>
    341a:	81 e0       	ldi	r24, 0x01	; 1
    341c:	80 93 60 00 	sts	0x0060, r24

	
	}


cli();
    3420:	f8 94       	cli

TIMSK |= _BV(OCIE1A);  //    timer1
    3422:	89 b7       	in	r24, 0x39	; 57
    3424:	80 61       	ori	r24, 0x10	; 16
    3426:	89 bf       	out	0x39, r24	; 57


}
    3428:	0f 90       	pop	r0
    342a:	cf 91       	pop	r28
    342c:	df 91       	pop	r29
    342e:	ff 91       	pop	r31
    3430:	ef 91       	pop	r30
    3432:	bf 91       	pop	r27
    3434:	af 91       	pop	r26
    3436:	9f 91       	pop	r25
    3438:	8f 91       	pop	r24
    343a:	7f 91       	pop	r23
    343c:	6f 91       	pop	r22
    343e:	5f 91       	pop	r21
    3440:	4f 91       	pop	r20
    3442:	3f 91       	pop	r19
    3444:	2f 91       	pop	r18
    3446:	0f 90       	pop	r0
    3448:	0f be       	out	0x3f, r0	; 63
    344a:	0f 90       	pop	r0
    344c:	1f 90       	pop	r1
    344e:	18 95       	reti

00003450 <__vector_1>:
/**************************************************************************************
*     INT0
***************************************************************************************/


ISR(INT0_vect){
    3450:	1f 92       	push	r1
    3452:	0f 92       	push	r0
    3454:	0f b6       	in	r0, 0x3f	; 63
    3456:	0f 92       	push	r0
    3458:	11 24       	eor	r1, r1
    345a:	2f 93       	push	r18
    345c:	3f 93       	push	r19
    345e:	4f 93       	push	r20
    3460:	5f 93       	push	r21
    3462:	6f 93       	push	r22
    3464:	7f 93       	push	r23
    3466:	8f 93       	push	r24
    3468:	9f 93       	push	r25
    346a:	af 93       	push	r26
    346c:	bf 93       	push	r27
    346e:	ef 93       	push	r30
    3470:	ff 93       	push	r31
//TIMSK |= _BV(OCIE2);          //    /

if(!(MCUCR&_BV(ISC00)))		 //    
    3472:	05 b6       	in	r0, 0x35	; 53
    3474:	00 fc       	sbrc	r0, 0
    3476:	17 c0       	rjmp	.+46     	; 0x34a6 <__vector_1+0x56>
	{
		MCUCR |=_BV(ISC00); //    
    3478:	85 b7       	in	r24, 0x35	; 53
    347a:	81 60       	ori	r24, 0x01	; 1
    347c:	85 bf       	out	0x35, r24	; 53
		if (start_bit_received)// - ,    
    347e:	80 91 69 00 	lds	r24, 0x0069
    3482:	88 23       	and	r24, r24
    3484:	09 f4       	brne	.+2      	; 0x3488 <__vector_1+0x38>
    3486:	6a c0       	rjmp	.+212    	; 0x355c <__vector_1+0x10c>
			{
				if((high_level_counter < (IR_SPACE + ERROR_TOLERANCE))&&(high_level_counter > (IR_SPACE - ERROR_TOLERANCE)))//    
    3488:	80 91 9d 00 	lds	r24, 0x009D
    348c:	90 91 9e 00 	lds	r25, 0x009E
    3490:	c9 97       	sbiw	r24, 0x39	; 57
    3492:	08 f0       	brcs	.+2      	; 0x3496 <__vector_1+0x46>
    3494:	44 c0       	rjmp	.+136    	; 0x351e <__vector_1+0xce>
    3496:	80 91 9d 00 	lds	r24, 0x009D
    349a:	90 91 9e 00 	lds	r25, 0x009E
    349e:	4e 97       	sbiw	r24, 0x1e	; 30
    34a0:	08 f4       	brcc	.+2      	; 0x34a4 <__vector_1+0x54>
    34a2:	3d c0       	rjmp	.+122    	; 0x351e <__vector_1+0xce>
    34a4:	5b c0       	rjmp	.+182    	; 0x355c <__vector_1+0x10c>
		low_level_counter = 0;//       -
		high_level_counter = 0;//       -
	}
else 						//   
	{
		MCUCR &=~_BV(ISC00); //    
    34a6:	85 b7       	in	r24, 0x35	; 53
    34a8:	8e 7f       	andi	r24, 0xFE	; 254
    34aa:	85 bf       	out	0x35, r24	; 53
		
		if (start_bit_received)// - ,    
    34ac:	80 91 69 00 	lds	r24, 0x0069
    34b0:	88 23       	and	r24, r24
    34b2:	09 f4       	brne	.+2      	; 0x34b6 <__vector_1+0x66>
    34b4:	3e c0       	rjmp	.+124    	; 0x3532 <__vector_1+0xe2>
			{
				if((low_level_counter < (IR_ZERO + ERROR_TOLERANCE))&&(low_level_counter > (IR_ZERO - ERROR_TOLERANCE)))//,      
    34b6:	80 91 65 00 	lds	r24, 0x0065
    34ba:	90 91 66 00 	lds	r25, 0x0066
    34be:	c9 97       	sbiw	r24, 0x39	; 57
    34c0:	90 f4       	brcc	.+36     	; 0x34e6 <__vector_1+0x96>
    34c2:	80 91 65 00 	lds	r24, 0x0065
    34c6:	90 91 66 00 	lds	r25, 0x0066
    34ca:	4e 97       	sbiw	r24, 0x1e	; 30
    34cc:	60 f0       	brcs	.+24     	; 0x34e6 <__vector_1+0x96>
				{
					set_buffer_bit(bit_in_rx_buff++, false);//      0,     
    34ce:	80 91 a4 00 	lds	r24, 0x00A4
    34d2:	90 91 a5 00 	lds	r25, 0x00A5
    34d6:	01 96       	adiw	r24, 0x01	; 1
    34d8:	90 93 a5 00 	sts	0x00A5, r25
    34dc:	80 93 a4 00 	sts	0x00A4, r24
    34e0:	01 97       	sbiw	r24, 0x01	; 1
    34e2:	60 e0       	ldi	r22, 0x00	; 0
    34e4:	19 c0       	rjmp	.+50     	; 0x3518 <__vector_1+0xc8>
				
				}
				else //,      0
				{
					if((low_level_counter < (IR_ONE + ERROR_TOLERANCE))&&(low_level_counter > (IR_ONE - ERROR_TOLERANCE)))//,      1?
    34e6:	80 91 65 00 	lds	r24, 0x0065
    34ea:	90 91 66 00 	lds	r25, 0x0066
    34ee:	84 36       	cpi	r24, 0x64	; 100
    34f0:	91 05       	cpc	r25, r1
    34f2:	a8 f4       	brcc	.+42     	; 0x351e <__vector_1+0xce>
    34f4:	80 91 65 00 	lds	r24, 0x0065
    34f8:	90 91 66 00 	lds	r25, 0x0066
    34fc:	89 34       	cpi	r24, 0x49	; 73
    34fe:	91 05       	cpc	r25, r1
    3500:	70 f0       	brcs	.+28     	; 0x351e <__vector_1+0xce>
					{
							set_buffer_bit(bit_in_rx_buff++, true);//      1,     		
    3502:	80 91 a4 00 	lds	r24, 0x00A4
    3506:	90 91 a5 00 	lds	r25, 0x00A5
    350a:	01 96       	adiw	r24, 0x01	; 1
    350c:	90 93 a5 00 	sts	0x00A5, r25
    3510:	80 93 a4 00 	sts	0x00A4, r24
    3514:	01 97       	sbiw	r24, 0x01	; 1
    3516:	61 e0       	ldi	r22, 0x01	; 1
    3518:	0e 94 a6 14 	call	0x294c	; 0x294c <set_buffer_bit>
    351c:	1f c0       	rjmp	.+62     	; 0x355c <__vector_1+0x10c>
					}
					else //  ,   -   
					{
						start_bit_received	= false; 	// 
    351e:	10 92 69 00 	sts	0x0069, r1
						bit_in_rx_buff = 0;				// 
    3522:	10 92 a5 00 	sts	0x00A5, r1
    3526:	10 92 a4 00 	sts	0x00A4, r1
						rx_event = RX_ERROR;			//  - " "
    352a:	82 e0       	ldi	r24, 0x02	; 2
    352c:	80 93 6a 00 	sts	0x006A, r24
    3530:	15 c0       	rjmp	.+42     	; 0x355c <__vector_1+0x10c>
					}
				}
			}
		else //-   
		{
			if ((low_level_counter < (IR_START + ERROR_TOLERANCE))&&(low_level_counter > (IR_START - ERROR_TOLERANCE))) //  -?	
    3532:	80 91 65 00 	lds	r24, 0x0065
    3536:	90 91 66 00 	lds	r25, 0x0066
    353a:	8a 3b       	cpi	r24, 0xBA	; 186
    353c:	91 05       	cpc	r25, r1
    353e:	70 f4       	brcc	.+28     	; 0x355c <__vector_1+0x10c>
    3540:	80 91 65 00 	lds	r24, 0x0065
    3544:	90 91 66 00 	lds	r25, 0x0066
    3548:	8f 39       	cpi	r24, 0x9F	; 159
    354a:	91 05       	cpc	r25, r1
    354c:	38 f0       	brcs	.+14     	; 0x355c <__vector_1+0x10c>
			{// -
				bit_in_rx_buff = 0;				// 
    354e:	10 92 a5 00 	sts	0x00A5, r1
    3552:	10 92 a4 00 	sts	0x00A4, r1
				start_bit_received	= true; 	//   ()
    3556:	81 e0       	ldi	r24, 0x01	; 1
    3558:	80 93 69 00 	sts	0x0069, r24
				//
			}
		}
		
		
		low_level_counter = 0;//       -
    355c:	10 92 66 00 	sts	0x0066, r1
    3560:	10 92 65 00 	sts	0x0065, r1
		high_level_counter = 0;//       -
    3564:	10 92 9e 00 	sts	0x009E, r1
    3568:	10 92 9d 00 	sts	0x009D, r1
	


	}

}
    356c:	ff 91       	pop	r31
    356e:	ef 91       	pop	r30
    3570:	bf 91       	pop	r27
    3572:	af 91       	pop	r26
    3574:	9f 91       	pop	r25
    3576:	8f 91       	pop	r24
    3578:	7f 91       	pop	r23
    357a:	6f 91       	pop	r22
    357c:	5f 91       	pop	r21
    357e:	4f 91       	pop	r20
    3580:	3f 91       	pop	r19
    3582:	2f 91       	pop	r18
    3584:	0f 90       	pop	r0
    3586:	0f be       	out	0x3f, r0	; 63
    3588:	0f 90       	pop	r0
    358a:	1f 90       	pop	r1
    358c:	18 95       	reti

0000358e <__udivmodhi4>:
    358e:	aa 1b       	sub	r26, r26
    3590:	bb 1b       	sub	r27, r27
    3592:	51 e1       	ldi	r21, 0x11	; 17
    3594:	07 c0       	rjmp	.+14     	; 0x35a4 <__udivmodhi4_ep>

00003596 <__udivmodhi4_loop>:
    3596:	aa 1f       	adc	r26, r26
    3598:	bb 1f       	adc	r27, r27
    359a:	a6 17       	cp	r26, r22
    359c:	b7 07       	cpc	r27, r23
    359e:	10 f0       	brcs	.+4      	; 0x35a4 <__udivmodhi4_ep>
    35a0:	a6 1b       	sub	r26, r22
    35a2:	b7 0b       	sbc	r27, r23

000035a4 <__udivmodhi4_ep>:
    35a4:	88 1f       	adc	r24, r24
    35a6:	99 1f       	adc	r25, r25
    35a8:	5a 95       	dec	r21
    35aa:	a9 f7       	brne	.-22     	; 0x3596 <__udivmodhi4_loop>
    35ac:	80 95       	com	r24
    35ae:	90 95       	com	r25
    35b0:	bc 01       	movw	r22, r24
    35b2:	cd 01       	movw	r24, r26
    35b4:	08 95       	ret

000035b6 <_exit>:
    35b6:	f8 94       	cli

000035b8 <__stop_program>:
    35b8:	ff cf       	rjmp	.-2      	; 0x35b8 <__stop_program>
